******************************************************************************
                  TI ARM Linker PC v5.2.6                      
******************************************************************************
>> Linked Thu May 27 14:25:12 2021

OUTPUT FILE NAME:   <host_test_cc2650lp_stack.out>
ENTRY POINT SYMBOL: "startup_entry"  address: 00008001


MEMORY CONFIGURATION

         name            origin    length      used     unused   attr    fill
----------------------  --------  ---------  --------  --------  ----  --------
  FLASH                 00000000   0001f000  00016640  000089c0  R  X
  SRAM                  20000000   000048e7  0000057c  0000436b  RW X


SEGMENT ALLOCATION MAP

run origin  load origin   length   init length attrs members
----------  ----------- ---------- ----------- ----- -------
00008000    00008000    00015640   00015640    r-x
  00008000    00008000    0000004c   0000004c    r-x EntrySection
  0000804c    0000804c    000147b4   000147b4    r-x .text
  0001c800    0001c800    000006f4   000006f4    r-- .const
  0001cef4    0001cef4    000002e0   000002e0    r-- .rodata
  0001d1d8    0001d1d8    00000468   00000468    r-- .cinit
0001e000    0001e000    00001000   00001000    r--
  0001e000    0001e000    00001000   00001000    r-- .TI.bound:NV_FLASH
20004368    20004368    0000057c   00000000    rw-
  20004368    20004368    00000148   00000000    rw- .bss
  200044b0    200044b0    00000434   00000000    rw- .data


SECTION ALLOCATION MAP

 output                                  attributes/
section   page    origin      length       input sections
--------  ----  ----------  ----------   ----------------
EntrySection 
*          0    00008000    0000004c     
                  00008000    0000002c     icall_startup.obj (EntrySection)
                  0000802c    00000008     rtsv7M3_T_le_eabi.lib : autoinit.obj (.tramp.__TI_auto_init.1)
                  00008034    00000008     <whole-program> (.tramp.CommonROM_Init.1)
                  0000803c    00000008     <whole-program> (.tramp.ROM_Init.1)
                  00008044    00000008     <whole-program> (.tramp.stack_main.1)

.text      0    0000804c    000147b4     
                  0000804c    000001a4     host_pcxx.a : att_client.o (.text)
                  000081f0    000001ec                 : att_server.o (.text)
                  000083dc    000005cc                 : att_util.o (.text)
                  000089a8    00000544                 : gap_centdevmgr.o (.text)
                  00008eec    0000024e                 : gap_centlinkmgr.o (.text)
                  0000913a    00000002     --HOLE-- [fill = 0]
                  0000913c    00000348                 : gap_configmgr.o (.text)
                  00009484    000000b0                 : gap_devmgr.o (.text)
                  00009534    000009bc                 : gap_linkmgr.o (.text)
                  00009ef0    00000624                 : gap_peridevmgr.o (.text)
                  0000a514    00000110                 : gap_perilinkmgr.o (.text)
                  0000a624    000002ec                 : gap_task.o (.text)
                  0000a910    0000032c                 : gapgattserver.o (.text)
                  0000ac3c    00000d34                 : gatt_client.o (.text)
                  0000b970    00000b16                 : gatt_server.o (.text)
                  0000c486    00000002     --HOLE-- [fill = 0]
                  0000c488    000002f6                 : gatt_task.o (.text)
                  0000c77e    00000002     --HOLE-- [fill = 0]
                  0000c780    0000013e                 : gatt_uuid.o (.text)
                  0000c8be    00000002     --HOLE-- [fill = 0]
                  0000c8c0    00000fcc                 : gattservapp.o (.text)
                  0000d88c    0000017e                 : l2cap_if.o (.text)
                  0000da0a    00000002     --HOLE-- [fill = 0]
                  0000da0c    000002b0                 : l2cap_task.o (.text)
                  0000dcbc    0000068c                 : l2cap_util.o (.text)
                  0000e348    000002ec                 : linkdb.o (.text)
                  0000e634    00000588                 : sm_intpairing.o (.text)
                  0000ebbc    000006a0                 : sm_mgr.o (.text)
                  0000f25c    000007e4                 : sm_pairing.o (.text)
                  0000fa40    00000570                 : sm_rsppairing.o (.text)
                  0000ffb0    000000e8                 : sm_task.o (.text)
                  00010098    0000039c                 : smp.o (.text)
                  00010434    00000abc     cc2640_ctrl_pcxx_41c.a : ble_patch.o (.text)
                  00010ef0    000000a8                            : hci_data_patch.o (.text)
                  00010f98    000005f4                            : hci_event_patch.o (.text)
                  0001158c    000003a0                            : hci_patch.o (.text)
                  0001192c    00000042                            : ll_access_address_patch.o (.text)
                  0001196e    00000002     --HOLE-- [fill = 0]
                  00011970    00000546                            : ll_adv_end_causes_patch.o (.text)
                  00011eb6    00000002     --HOLE-- [fill = 0]
                  00011eb8    000014bc                            : ll_common_patch.o (.text)
                  00013374    0000014c                            : ll_enc_patch.o (.text)
                  000134c0    00000328                            : ll_init_end_causes_patch.o (.text)
                  000137e8    000006aa                            : ll_master_end_causes_patch.o (.text)
                  00013e92    00000002     --HOLE-- [fill = 0]
                  00013e94    00002074                            : ll_patch.o (.text)
                  00015f08    00000010                            : ll_rat_patch.o (.text)
                  00015f18    000000e8                            : ll_scan_end_causes_patch.o (.text)
                  00016000    000001a8                            : ll_scheduler_patch.o (.text)
                  000161a8    00000946                            : ll_slave_end_causes_patch.o (.text)
                  00016aee    00000002     --HOLE-- [fill = 0]
                  00016af0    00000046                            : ll_sleep.o (.text)
                  00016b36    000000ae                            : ll_wl_patch.o (.text)
                  00016be4    0000058c                            : ll_isr.o (.text)
                  00017170    00000ad6     cc26xx_hci_tl_full_v41.a : hci_tl.o (.text)
                  00017c46    00000002     --HOLE-- [fill = 0]
                  00017c48    0000006c     rtsv7M3_T_le_eabi.lib : autoinit.obj (.text)
                  00017cb4    00000018                           : ll_mul_t2.obj (.text)
                  00017ccc    0000009c                           : memcpy_t2.obj (.text)
                  00017d68    0000007a                           : memset_t2.obj (.text)
                  00017de2    000001f4                           : ull_div_t2.obj (.text)
                  00017fd6    0000000c     driverlib.lib : cpu.obj (.text:NOROM_CPUcpsie)
                  00017fe2    0000000c                   : cpu.obj (.text:NOROM_CPUcpsid)
                  00017fee    00000002     --HOLE-- [fill = 0]
                  00017ff0    0000001c                   : flash.obj (.text:NOROM_FlashSectorErase)
                  0001800c    0000001c                   : flash.obj (.text:NOROM_FlashProgram)
                  00018028    00000070                   : interrupt.obj (.text:NOROM_IntEnable)
                  00018098    0000005c                   : interrupt.obj (.text:NOROM_IntDisable)
                  000180f4    00000034                   : trng.obj (.text:NOROM_TRNGConfigure)
                  00018128    0000000e                   : vims.obj (.text:NOROM_VIMSModeGet)
                  00018136    00000002     --HOLE-- [fill = 0]
                  00018138    000002c8     osal_timers.obj (.text)
                  00018400    00000094     rom_jt.obj (.text)
                  00018494    00000068     hal_trng_wrapper.obj (.text)
                  000184fc    00000034     hal_assert.obj (.text)
                  00018530    00000014     onboard.obj (.text)
                  00018544    000000d0     osal_bufmgr.obj (.text)
                  00018614    00000754     osal.obj (.text)
                  00018d68    00000058     hal_flash_wrapper.obj (.text)
                  00018dc0    00000200     osal_cbtimer.obj (.text)
                  00018fc0    00000478     osal_snv_wrapper.obj (.text)
                  00019438    00000022     rtsv7M3_T_le_eabi.lib : memcmp.obj (.text)
                  0001945a    00000002     --HOLE-- [fill = 0]
                  0001945c    00002a04     ble_dispatch.obj (.text)
                  0001be60    00000064     gap.obj (.text)
                  0001bec4    00000064     npi.obj (.text)
                  0001bf28    000000a0     osal_pwrmgr.obj (.text)
                  0001bfc8    00000068     osal_clock.obj (.text)
                  0001c030    00000048     osal_memory_icall.obj (.text)
                  0001c078    0000006c     ble_user_config.obj (.text)
                  0001c0e4    00000114     osal_icall_ble.obj (.text)
                  0001c1f8    00000014     rtsv7M3_T_le_eabi.lib : strlen.obj (.text)
                  0001c20c    0000004c                           : cpy_tbl.obj (.text)
                  0001c258    0000000c                           : copy_zero_init.obj (.text:decompress:ZI)
                  0001c264    0000006a                           : copy_decompress_rle.obj (.text)
                  0001c2ce    00000006                           : copy_decompress_rle.obj (.text:decompress:rle24)
                  0001c2d4    0000000e                           : copy_decompress_none.obj (.text:decompress:none)
                  0001c2e2    00000002     --HOLE-- [fill = 0]
                  0001c2e4    00000064     gattservapp_util.obj (.text)
                  0001c348    00000008     ble_rom_patch.symbols (.tramp.HCI_LE_SetScanParamCmd.1)
                  0001c350    00000008     ble_rom_patch.symbols (.tramp.HCI_LE_SetScanEnableCmd.1)
                  0001c358    00000008     ble_rom_patch.symbols (.tramp.HCI_LE_CreateConnCmd.1)
                  0001c360    00000008     ble_rom_patch.symbols (.tramp.HCI_LE_CreateConnCancelCmd.1)
                  0001c368    00000008     ble_rom_patch.symbols (.tramp.HCI_ReadBDADDRCmd.1)
                  0001c370    00000008     ble_rom_patch.symbols (.tramp.HCI_LE_SetRandomAddressCmd.1)
                  0001c378    00000008     ble_rom_patch.symbols (.tramp.LL_ReadBDADDR.1)
                  0001c380    00000008     ble_rom_patch.symbols (.tramp.HCI_DisconnectCmd.1)
                  0001c388    00000008     ble_rom_patch.symbols (.tramp.HCI_LE_SetAdvDataCmd.1)
                  0001c390    00000008     ble_rom_patch.symbols (.tramp.HCI_LE_SetScanRspDataCmd.1)
                  0001c398    00000008     ble_rom_patch.symbols (.tramp.HCI_LE_SetAdvEnableCmd.1)
                  0001c3a0    00000008     ble_rom_patch.symbols (.tramp.HCI_LE_SetAdvParamCmd.1)
                  0001c3a8    00000008     ble_rom_patch.symbols (.tramp.HCI_SetControllerToHostFlowCtrlCmd.1)
                  0001c3b0    00000008     ble_rom_patch.symbols (.tramp.HCI_HostBufferSizeCmd.1)
                  0001c3b8    00000008     ble_rom_patch.symbols (.tramp.HCI_HostNumCompletedPktCmd.1)
                  0001c3c0    00000008     ble_rom_patch.symbols (.tramp.HCI_SendDataPkt.1)
                  0001c3c8    00000008     ble_rom_patch.symbols (.tramp.HCI_bm_alloc.1)
                  0001c3d0    00000008     ble_rom_patch.symbols (.tramp.HCI_LE_StartEncyptCmd.1)
                  0001c3d8    00000008     ble_rom_patch.symbols (.tramp.LL_Encrypt.1)
                  0001c3e0    00000008     ble_rom_patch.symbols (.tramp.HCI_LE_LtkReqReplyCmd.1)
                  0001c3e8    00000008     ble_rom_patch.symbols (.tramp.HCI_LE_LtkReqNegReplyCmd.1)
                  0001c3f0    00000008     ble_rom_patch.symbols (.tramp.llMemCopySrc.1)
                  0001c3f8    00000008     ble_rom_patch.symbols (.tramp.LL_ENC_ReverseBytes.1)
                  0001c400    00000008     ble_rom_patch.symbols (.tramp.LL_ENC_GenDeviceSKD.1)
                  0001c408    00000008     ble_rom_patch.symbols (.tramp.LL_ENC_GenDeviceIV.1)
                  0001c410    00000008     ble_rom_patch.symbols (.tramp.llEnqueueCtrlPkt.1)
                  0001c418    00000008     ble_rom_patch.symbols (.tramp.llSetupUnknownRsp.1)
                  0001c420    00000008     ble_rom_patch.symbols (.tramp.LL_ENC_AES128_Encrypt.1)
                  0001c428    00000008     ble_rom_patch.symbols (.tramp.LL_EncKeyRefreshCback.1)
                  0001c430    00000008     ble_rom_patch.symbols (.tramp.LL_EncChangeCback.1)
                  0001c438    00000008     ble_rom_patch.symbols (.tramp.llMoveTempTxDataEntries.1)
                  0001c440    00000008     ble_rom_patch.symbols (.tramp.LL_RX_bm_alloc.1)
                  0001c448    00000008     ble_rom_patch.symbols (.tramp.llPatchCM0.1)
                  0001c450    00000008     ble_rom_patch.symbols (.tramp.RFHAL_AllocRatChan.1)
                  0001c458    00000008     ble_rom_patch.symbols (.tramp.RFHAL_RegisterRatChanCallback.1)
                  0001c460    00000008     ble_rom_patch.symbols (.tramp.LL_CtrlToHostFlowControl.1)
                  0001c468    00000008     ble_rom_patch.symbols (.tramp.HCI_SendCommandCompleteEvent.1)
                  0001c470    00000008     ble_rom_patch.symbols (.tramp.HCI_CommandCompleteEvent.1)
                  0001c478    00000008     ble_rom_patch.symbols (.tramp.HCI_CommandStatusEvent.1)
                  0001c480    00000008     ble_rom_patch.symbols (.tramp.LL_EXT_ResetSystem.1)
                  0001c488    00000008     ble_rom_patch.symbols (.tramp.LL_ReadLocalVersionInfo.1)
                  0001c490    00000008     ble_rom_patch.symbols (.tramp.llEqAlreadyValidAddr.1)
                  0001c498    00000008     ble_rom_patch.symbols (.tramp.llGtSixConsecZerosOrOnes.1)
                  0001c4a0    00000008     ble_rom_patch.symbols (.tramp.llEqSynchWord.1)
                  0001c4a8    00000008     ble_rom_patch.symbols (.tramp.llOneBitSynchWordDiffer.1)
                  0001c4b0    00000008     ble_rom_patch.symbols (.tramp.llEqualBytes.1)
                  0001c4b8    00000008     ble_rom_patch.symbols (.tramp.llGtTwentyFourTransitions.1)
                  0001c4c0    00000008     ble_rom_patch.symbols (.tramp.llLtTwoChangesInLastSixBits.1)
                  0001c4c8    00000008     ble_rom_patch.symbols (.tramp.llFreeTask.1)
                  0001c4d0    00000008     ble_rom_patch.symbols (.tramp.LL_ENC_GeneratePseudoRandNum.1)
                  0001c4d8    00000008     ble_rom_patch.symbols (.tramp.llScheduler.1)
                  0001c4e0    00000008     ble_rom_patch.symbols (.tramp.llConvertLstoToEvent.1)
                  0001c4e8    00000008     ble_rom_patch.symbols (.tramp.llConvertCtrlProcTimeoutToEvent.1)
                  0001c4f0    00000008     ble_rom_patch.symbols (.tramp.llCalcScaFactor.1)
                  0001c4f8    00000008     ble_rom_patch.symbols (.tramp.llConnTerminate.1)
                  0001c500    00000008     ble_rom_patch.symbols (.tramp.RFHAL_InitDataQueue.1)
                  0001c508    00000008     ble_rom_patch.symbols (.tramp.llEventDelta.1)
                  0001c510    00000008     ble_rom_patch.symbols (.tramp.LL_TX_bm_alloc.1)
                  0001c518    00000008     ble_rom_patch.symbols (.tramp.RFHAL_FreeNextTxDataEntry.1)
                  0001c520    00000008     ble_rom_patch.symbols (.tramp.RFHAL_GetNextDataEntry.1)
                  0001c528    00000008     ble_rom_patch.symbols (.tramp.RFHAL_GetTempDataEntry.1)
                  0001c530    00000008     ble_rom_patch.symbols (.tramp.llReleaseConnId.1)
                  0001c538    00000008     ble_rom_patch.symbols (.tramp.llTimeCompare.1)
                  0001c540    00000008     ble_rom_patch.symbols (.tramp.llTimeDelta.1)
                  0001c548    00000008     ble_rom_patch.symbols (.tramp.HCI_HardwareErrorEvent.1)
                  0001c550    00000008     ble_rom_patch.symbols (.tramp.llGetCurrentTask.1)
                  0001c558    00000008     ble_rom_patch.symbols (.tramp.LL_ConnActive.1)
                  0001c560    00000008     ble_rom_patch.symbols (.tramp.llSetupRejectInd.1)
                  0001c568    00000008     ble_rom_patch.symbols (.tramp.LL_ENC_Init.1)
                  0001c570    00000008     ble_rom_patch.symbols (.tramp.LL_ENC_LoadKey.1)
                  0001c578    00000008     ble_rom_patch.symbols (.tramp.LL_ENC_GenerateNonce.1)
                  0001c580    00000008     ble_rom_patch.symbols (.tramp.LL_ENC_EncryptMsg.1)
                  0001c588    00000008     ble_rom_patch.symbols (.tramp.LL_ENC_DecryptMsg.1)
                  0001c590    00000008     ble_rom_patch.symbols (.tramp.llSetupUpdateParamReq.1)
                  0001c598    00000008     ble_rom_patch.symbols (.tramp.llSetupEncReq.1)
                  0001c5a0    00000008     ble_rom_patch.symbols (.tramp.llSetupStartEncRsp.1)
                  0001c5a8    00000008     ble_rom_patch.symbols (.tramp.llSetupPauseEncReq.1)
                  0001c5b0    00000008     ble_rom_patch.symbols (.tramp.llSetupPauseEncRsp.1)
                  0001c5b8    00000008     ble_rom_patch.symbols (.tramp.LL_ReadRemoteVersionInfoCback.1)
                  0001c5c0    00000008     ble_rom_patch.symbols (.tramp.llSetupVersionIndReq.1)
                  0001c5c8    00000008     ble_rom_patch.symbols (.tramp.WL_Init.1)
                  0001c5d0    00000008     ble_rom_patch.symbols (.tramp.LL_ClearWhiteList.1)
                  0001c5d8    00000008     ble_rom_patch.symbols (.tramp.llReleaseAllConnId.1)
                  0001c5e0    00000008     ble_rom_patch.symbols (.tramp.LL_ENC_GenerateTrueRandNum.1)
                  0001c5e8    00000008     ble_rom_patch.symbols (.tramp.HCI_DataBufferOverflowEvent.1)
                  0001c5f0    00000008     ble_rom_patch.symbols (.tramp.LL_DirectTestEndDoneCback.1)
                  0001c5f8    00000008     ble_rom_patch.symbols (.tramp.llSetupAdv.1)
                  0001c600    00000008     ble_rom_patch.symbols (.tramp.llGetNumTasks.1)
                  0001c608    00000008     ble_rom_patch.symbols (.tramp.llSetupScan.1)
                  0001c610    00000008     ble_rom_patch.symbols (.tramp.llPendingUpdateParam.1)
                  0001c618    00000008     ble_rom_patch.symbols (.tramp.llGenerateCRC.1)
                  0001c620    00000008     ble_rom_patch.symbols (.tramp.llGenerateValidAccessAddr.1)
                  0001c628    00000008     ble_rom_patch.symbols (.tramp.llSetupInit.1)
                  0001c630    00000008     ble_rom_patch.symbols (.tramp.llAtLeastTwoChans.1)
                  0001c638    00000008     ble_rom_patch.symbols (.tramp.llGetAdvChanPDU.1)
                  0001c640    00000008     ble_rom_patch.symbols (.tramp.WL_AddEntry.1)
                  0001c648    00000008     ble_rom_patch.symbols (.tramp.LL_AdvReportCback.1)
                  0001c650    00000008     ble_rom_patch.symbols (.tramp.RFHAL_NextDataEntryDone.1)
                  0001c658    00000008     ble_rom_patch.symbols (.tramp.llCheckForLstoDuringSL.1)
                  0001c660    00000008     ble_rom_patch.symbols (.tramp.llEventInRange.1)
                  0001c668    00000008     ble_rom_patch.symbols (.tramp.LL_EncLtkReqCback.1)
                  0001c670    00000008     ble_rom_patch.symbols (.tramp.llSetupEncRsp.1)
                  0001c678    00000008     ble_rom_patch.symbols (.tramp.WL_ClearEntry.1)
                  0001c680    00000008     ble_rom_patch.symbols (.tramp.HCI_ReadRemoteVersionInfoCmd.1)
                  0001c688    00000008     ble_rom_patch.symbols (.tramp.HCI_SetEventMaskCmd.1)
                  0001c690    00000008     ble_rom_patch.symbols (.tramp.HCI_ReadTransmitPowerLevelCmd.1)
                  0001c698    00000008     ble_rom_patch.symbols (.tramp.HCI_ReadLocalSupportedFeaturesCmd.1)
                  0001c6a0    00000008     ble_rom_patch.symbols (.tramp.HCI_LE_ReadLocalSupportedFeaturesCmd.1)
                  0001c6a8    00000008     ble_rom_patch.symbols (.tramp.HCI_LE_ReadAdvChanTxPowerCmd.1)
                  0001c6b0    00000008     ble_rom_patch.symbols (.tramp.HCI_LE_ReadWhiteListSizeCmd.1)
                  0001c6b8    00000008     ble_rom_patch.symbols (.tramp.HCI_LE_ClearWhiteListCmd.1)
                  0001c6c0    00000008     ble_rom_patch.symbols (.tramp.HCI_LE_AddWhiteListCmd.1)
                  0001c6c8    00000008     ble_rom_patch.symbols (.tramp.HCI_LE_RemoveWhiteListCmd.1)
                  0001c6d0    00000008     ble_rom_patch.symbols (.tramp.HCI_LE_SetHostChanClassificationCmd.1)
                  0001c6d8    00000008     ble_rom_patch.symbols (.tramp.HCI_LE_ReadChannelMapCmd.1)
                  0001c6e0    00000008     ble_rom_patch.symbols (.tramp.HCI_ReverseBytes.1)
                  0001c6e8    00000008     ble_rom_patch.symbols (.tramp.HCI_LE_EncryptCmd.1)
                  0001c6f0    00000008     ble_rom_patch.symbols (.tramp.HCI_LE_RandCmd.1)
                  0001c6f8    00000008     ble_rom_patch.symbols (.tramp.HCI_LE_ReadSupportedStatesCmd.1)
                  0001c700    00000008     ble_rom_patch.symbols (.tramp.HCI_LE_TestEndCmd.1)
                  0001c708    00000008     ble_rom_patch.symbols (.tramp.HCI_EXT_SetRxGainCmd.1)
                  0001c710    00000008     ble_rom_patch.symbols (.tramp.HCI_EXT_SetTxPowerCmd.1)
                  0001c718    00000008     ble_rom_patch.symbols (.tramp.HCI_EXT_ExtendRfRangeCmd.1)
                  0001c720    00000008     ble_rom_patch.symbols (.tramp.HCI_EXT_HaltDuringRfCmd.1)
                  0001c728    00000008     ble_rom_patch.symbols (.tramp.HCI_EXT_SetMaxDtmTxPowerCmd.1)
                  0001c730    00000008     ble_rom_patch.symbols (.tramp.HCI_EXT_MapPmIoPortCmd.1)
                  0001c738    00000008     ble_rom_patch.symbols (.tramp.HCI_EXT_DisconnectImmedCmd.1)
                  0001c740    00000008     ble_rom_patch.symbols (.tramp.HCI_EXT_PacketErrorRateCmd.1)
                  0001c748    00000008     ble_rom_patch.symbols (.tramp.HCI_EXT_OverlappedProcessingCmd.1)
                  0001c750    00000008     ble_rom_patch.symbols (.tramp.HCI_EXT_NumComplPktsLimitCmd.1)
                  0001c758    00000008     ble_rom_patch.symbols (.tramp.HCI_EXT_OnePktPerEvtCmd.1)
                  0001c760    00000008     ble_rom_patch.symbols (.tramp.HCI_EXT_ClkDivOnHaltCmd.1)
                  0001c768    00000008     ble_rom_patch.symbols (.tramp.HCI_EXT_DeclareNvUsageCmd.1)
                  0001c770    00000008     ble_rom_patch.symbols (.tramp.HCI_EXT_DecryptCmd.1)
                  0001c778    00000008     ble_rom_patch.symbols (.tramp.HCI_EXT_SetLocalSupportedFeaturesCmd.1)
                  0001c780    00000008     ble_rom_patch.symbols (.tramp.HCI_EXT_SetFastTxResponseTimeCmd.1)
                  0001c788    00000008     ble_rom_patch.symbols (.tramp.HCI_EXT_SetSlaveLatencyOverrideCmd.1)
                  0001c790    00000008     ble_rom_patch.symbols (.tramp.HCI_EXT_SetSCACmd.1)
                  0001c798    00000008     ble_rom_patch.symbols (.tramp.HCI_EXT_BuildRevisionCmd.1)
                  0001c7a0    00000008     ble_rom_patch.symbols (.tramp.HCI_EXT_ModemTestTxCmd.1)
                  0001c7a8    00000008     ble_rom_patch.symbols (.tramp.HCI_EXT_ModemHopTestTxCmd.1)
                  0001c7b0    00000008     ble_rom_patch.symbols (.tramp.HCI_EXT_ModemTestRxCmd.1)
                  0001c7b8    00000008     ble_rom_patch.symbols (.tramp.HCI_EXT_EndModemTestCmd.1)
                  0001c7c0    00000008     ble_rom_patch.symbols (.tramp.HCI_EXT_SetBDADDRCmd.1)
                  0001c7c8    00000008     ble_rom_patch.symbols (.tramp.HCI_EXT_EnablePTMCmd.1)
                  0001c7d0    00000008     ble_rom_patch.symbols (.tramp.HCI_EXT_SetFreqTuneCmd.1)
                  0001c7d8    00000008     ble_rom_patch.symbols (.tramp.HCI_EXT_SaveFreqTuneCmd.1)
                  0001c7e0    00000008     ble_rom_patch.symbols (.tramp.LL_PseudoRand.1)
                  0001c7e8    00000008     ble_rom_patch.symbols (.tramp.HCI_SendControllerToHostEvent.1)
                  0001c7f0    00000008     ble_rom_patch.symbols (.tramp.HCI_EXT_AdvEventNoticeCmd.1)
                  0001c7f8    00000008     ble_rom_patch.symbols (.tramp.HCI_EXT_PERbyChanCmd.1)

.const     0    0001c800    000006f4     
                  0001c800    00000024     osal_icall_ble.obj (.const:tasksArr)
                  0001c824    000006d0     rom_jt.obj (.const)

.constdata 
*          0    0001cef4    00000000     UNINITIALIZED

.rodata    0    0001cef4    000002e0     
                  0001cef4    00000008     host_pcxx.a : gapgattserver.o (.rodata)
                  0001cefc    00000008                 : gattservapp.o (.rodata)
                  0001cf04    0000005c     cc2640_ctrl_pcxx_41c.a : ll_config.o (.rodata)
                  0001cf60    00000002                            : ll_patch.o (.rodata)
                  0001cf62    00000002     --HOLE-- [fill = 0]
                  0001cf64    00000270     cc26xx_hci_tl_full_v41.a : hci_tl.o (.rodata)

.cinit     0    0001d1d8    00000468     
                  0001d1d8    0000000c     (__TI_handler_table)
                  0001d1e4    00000010     (__TI_cinit_table)
                  0001d1f4    00000004     --HOLE-- [fill = 0]
                  0001d1f8    0000043c     (.cinit..data.load) [load image]
                  0001d634    00000004     --HOLE-- [fill = 0]
                  0001d638    00000008     (.cinit..bss.load) [load image, compression = zero_init]

.pinit     0    0001d640    00000000     UNINITIALIZED

.init_array 
*          0    0001d640    00000000     UNINITIALIZED

.emb_text 
*          0    0001d640    00000000     UNINITIALIZED

.TI.bound:NV_FLASH 
*          0    0001e000    00001000     
                  0001e000    00001000     osal_snv_wrapper.obj (.TI.bound:NV_FLASH)

.bss       0    20004368    00000148     UNINITIALIZED
                  20004368    00000004     host_pcxx.a : att_client.o (.bss)
                  2000436c    00000004                 : att_server.o (.bss)
                  20004370    00000004                 : gap_devmgr.o (.bss)
                  20004374    00000004                 : gap_devmgr.o (.bss)
                  20004378    00000001                 : gap_devmgr.o (.bss)
                  20004379    00000002                 : gatt_task.o (.bss)
                  2000437b    00000001                 : l2cap_if.o (.bss)
                  2000437c    00000004                 : gap_linkmgr.o (.bss)
                  20004380    00000004                 : gap_task.o (.bss)
                  20004384    00000004                 : gapgattserver.o (.bss)
                  20004388    00000004                 : gatt_client.o (.bss)
                  2000438c    00000004                 : gatt_server.o (.bss)
                  20004390    00000008                 : gatt_task.o (.bss)
                  20004398    00000024                 : gattservapp.o (.bss)
                  200043bc    00000004                 : gattservapp.o (.bss)
                  200043c0    00000030                 : l2cap_task.o (.bss)
                  200043f0    00000001                 : l2cap_util.o (.bss)
                  200043f1    00000001                 : sm_task.o (.bss)
                  200043f2    00000001     cc2640_ctrl_pcxx_41c.a : ll_common_patch.o (.bss)
                  200043f3    00000001     cc26xx_hci_tl_full_v41.a : hci_tl.o (.bss)
                  200043f4    00000038     host_pcxx.a : linkdb.o (.bss)
                  2000442c    0000000c                 : sm_pairing.o (.bss)
                  20004438    00000004     cc2640_ctrl_pcxx_41c.a : ble_patch.o (.bss)
                  2000443c    00000004                            : ble_patch.o (.bss)
                  20004440    00000010                            : hci_event_patch.o (.bss)
                  20004450    00000008                            : ll_patch.o (.bss)
                  20004458    00000028                            : ll_scan_end_causes_patch.o (.bss)
                  20004480    00000002                            : ll_slave_end_causes_patch.o (.bss)
                  20004482    00000001     cc26xx_hci_tl_full_v41.a : hci_tl.o (.bss)
                  20004483    00000001                              : hci_tl.o (.bss)
                  20004484    00000001                              : hci_tl.o (.bss)
                  20004485    00000001                              : hci_tl.o (.bss)
                  20004486    00000001                              : hci_tl.o (.bss)
                  20004487    00000001                              : hci_tl.o (.bss)
                  20004488    00000001                              : hci_tl.o (.bss)
                  20004489    00000001     --HOLE--
                  2000448a    00000002                              : hci_tl.o (.bss)
                  2000448c    00000002                              : hci_tl.o (.bss)
                  2000448e    00000002     --HOLE--
                  20004490    0000000c     osal_timers.obj (.bss)
                  2000449c    0000000c     icall_startup.obj (.bss)
                  200044a8    00000004     (.common:lastTrngVal$3)
                  200044ac    00000004     (.common:tasksEvents)

.TI.noinit 
*          0    20004368    00000000     UNINITIALIZED

.data      0    200044b0    00000434     UNINITIALIZED
                  200044b0    00000010     host_pcxx.a : gap_centdevmgr.o (.data)
                  200044c0    00000008                 : gap_centlinkmgr.o (.data)
                  200044c8    0000002c                 : gap_configmgr.o (.data)
                  200044f4    00000050                 : gap_configmgr.o (.data)
                  20004544    0000001c                 : gap_linkmgr.o (.data)
                  20004560    0000001c                 : gap_peridevmgr.o (.data)
                  2000457c    00000004                 : gap_perilinkmgr.o (.data)
                  20004580    0000000c                 : gap_task.o (.data)
                  2000458c    00000001                 : gapgattserver.o (.data)
                  2000458d    00000001                 : gapgattserver.o (.data)
                  2000458e    00000001                 : gapgattserver.o (.data)
                  2000458f    00000001                 : gatt_client.o (.data)
                  20004590    00000024                 : gapgattserver.o (.data)
                  200045b4    00000070                 : gapgattserver.o (.data)
                  20004624    00000001                 : gatt_server.o (.data)
                  20004625    00000001                 : gatt_task.o (.data)
                  20004626    00000001                 : gattservapp.o (.data)
                  20004627    00000001     npi.obj (.data)
                  20004628    00000008     host_pcxx.a : gatt_server.o (.data)
                  20004630    00000010                 : gattservapp.o (.data)
                  20004640    00000008                 : l2cap_task.o (.data)
                  20004648    00000002                 : l2cap_task.o (.data)
                  2000464a    00000002     --HOLE--
                  2000464c    0000000c                 : sm_intpairing.o (.data)
                  20004658    00000010                 : sm_rsppairing.o (.data)
                  20004668    0000000c     cc2640_ctrl_pcxx_41c.a : ll_common_patch.o (.data)
                  20004674    00000020                            : ll_config.o (.data)
                  20004694    00000004     osal_bufmgr.obj (.data)
                  20004698    00000100     cc2640_ctrl_pcxx_41c.a : ll_patch.o (.data)
                  20004798    00000008     hal_assert.obj (.data)
                  200047a0    00000090     ble_dispatch.obj (.data)
                  20004830    00000028     osal.obj (.data)
                  20004858    0000007c     osal_cbtimer.obj (.data)
                  200048d4    00000008     osal_clock.obj (.data)
                  200048dc    00000004     osal_pwrmgr.obj (.data)
                  200048e0    00000004     osal_snv_wrapper.obj (.data)

.TI.persistent 
*          0    200044b0    00000000     UNINITIALIZED


LINKER GENERATED COPY TABLES

__TI_cinit_table @ 0001d1e4 records: 2, size/record: 8, table size: 16
	.data: load addr=0001d1f8, load size=0000043c bytes, run addr=200044b0, run size=00000434 bytes, compression=copy
	.bss: load addr=0001d638, load size=00000008 bytes, run addr=20004368, run size=00000148 bytes, compression=zero_init


LINKER GENERATED HANDLER TABLE

__TI_handler_table @ 0001d1d8 records: 3, size/record: 4, table size: 12
	index: 0, handler: __TI_decompress_rle24
	index: 1, handler: __TI_decompress_none
	index: 2, handler: __TI_zero_init


FAR CALL TRAMPOLINES

callee name               trampoline name
   callee addr  tramp addr   call addr  call info
--------------  -----------  ---------  ----------------
__TI_auto_init            $Tramp$TT$S$$__TI_auto_init
   00017c49     0000802c     00008006   icall_startup.obj (EntrySection)
CommonROM_Init            $Tramp$TT$S$$CommonROM_Init
   00018437     00008034     00008018   icall_startup.obj (EntrySection)
ROM_Init                  $Tramp$TT$S$$ROM_Init
   00018457     0000803c     0000801c   icall_startup.obj (EntrySection)
stack_main                $Tramp$TT$S$$stack_main
   0001c1ab     00008044     00008022   icall_startup.obj (EntrySection)
HCI_LE_SetScanParamCmd    $Tramp$TT$L$PI$$HCI_LE_SetScanParamCmd
   10009915     0001c348     00008a28   host_pcxx.a : gap_centdevmgr.o (.text)
                             00017824   cc26xx_hci_tl_full_v41.a : hci_tl.o (.text)
HCI_LE_SetScanEnableCmd   $Tramp$TT$L$PI$$HCI_LE_SetScanEnableCmd
   10009941     0001c350     00008ee8   host_pcxx.a : gap_centdevmgr.o (.text)
                             00017832   cc26xx_hci_tl_full_v41.a : hci_tl.o (.text)
HCI_LE_CreateConnCmd      $Tramp$TT$L$PI$$HCI_LE_CreateConnCmd
   1000995d     0001c358     00008fc0   host_pcxx.a : gap_centlinkmgr.o (.text)
                             000178a8   cc26xx_hci_tl_full_v41.a : hci_tl.o (.text)
HCI_LE_CreateConnCancelCmd  $Tramp$TT$L$PI$$HCI_LE_CreateConnCancelCmd
   1000999d     0001c360     00009072   host_pcxx.a : gap_centlinkmgr.o (.text)
                             000178b4   cc26xx_hci_tl_full_v41.a : hci_tl.o (.text)
HCI_ReadBDADDRCmd         $Tramp$TT$L$PI$$HCI_ReadBDADDRCmd
   10009765     0001c368     0000917e   host_pcxx.a : gap_configmgr.o (.text)
                             00017be6   cc26xx_hci_tl_full_v41.a : hci_tl.o (.text)
                             0001bc60   ble_dispatch.obj (.text)
HCI_LE_SetRandomAddressCmd  $Tramp$TT$L$PI$$HCI_LE_SetRandomAddressCmd
   10009849     0001c370     0000934e   host_pcxx.a : gap_configmgr.o (.text)
                             0001778e   cc26xx_hci_tl_full_v41.a : hci_tl.o (.text)
LL_ReadBDADDR             $Tramp$TT$L$PI$$LL_ReadBDADDR
   100056c9     0001c378     0000941c   host_pcxx.a : gap_configmgr.o (.text)
HCI_DisconnectCmd         $Tramp$TT$L$PI$$HCI_DisconnectCmd
   10009525     0001c380     0000959e   host_pcxx.a : gap_linkmgr.o (.text)
                             00009b4a               : gap_linkmgr.o (.text)
                             00017664   cc26xx_hci_tl_full_v41.a : hci_tl.o (.text)
HCI_LE_SetAdvDataCmd      $Tramp$TT$L$PI$$HCI_LE_SetAdvDataCmd
   100098a1     0001c388     00009fd8   host_pcxx.a : gap_peridevmgr.o (.text)
                             0000a470               : gap_peridevmgr.o (.text)
                             000177d4   cc26xx_hci_tl_full_v41.a : hci_tl.o (.text)
HCI_LE_SetScanRspDataCmd  $Tramp$TT$L$PI$$HCI_LE_SetScanRspDataCmd
   100098bd     0001c390     00009fe2   host_pcxx.a : gap_peridevmgr.o (.text)
                             0000a47a               : gap_peridevmgr.o (.text)
                             000177e2   cc26xx_hci_tl_full_v41.a : hci_tl.o (.text)
HCI_LE_SetAdvEnableCmd    $Tramp$TT$L$PI$$HCI_LE_SetAdvEnableCmd
   100098d9     0001c398     0000a032   host_pcxx.a : gap_peridevmgr.o (.text)
                             0000a200               : gap_peridevmgr.o (.text)
                             000177ee   cc26xx_hci_tl_full_v41.a : hci_tl.o (.text)
HCI_LE_SetAdvParamCmd     $Tramp$TT$L$PI$$HCI_LE_SetAdvParamCmd
   1000986d     0001c3a0     0000a348   host_pcxx.a : gap_peridevmgr.o (.text)
                             000177c4   cc26xx_hci_tl_full_v41.a : hci_tl.o (.text)
HCI_SetControllerToHostFlowCtrlCmd  $Tramp$TT$L$PI$$HCI_SetControllerToHostFlowCtrlCmd
   100095f5     0001c3a8     0000d99c   host_pcxx.a : l2cap_if.o (.text)
                             0000d9bc               : l2cap_if.o (.text)
                             000176bc   cc26xx_hci_tl_full_v41.a : hci_tl.o (.text)
HCI_HostBufferSizeCmd     $Tramp$TT$L$PI$$HCI_HostBufferSizeCmd
   10009631     0001c3b0     0000d9b2   host_pcxx.a : l2cap_if.o (.text)
                             000176ea   cc26xx_hci_tl_full_v41.a : hci_tl.o (.text)
HCI_HostNumCompletedPktCmd  $Tramp$TT$L$PI$$HCI_HostNumCompletedPktCmd
   1000965d     0001c3b8     0000d9d0   host_pcxx.a : l2cap_if.o (.text)
                             000176fa   cc26xx_hci_tl_full_v41.a : hci_tl.o (.text)
HCI_SendDataPkt           $Tramp$TT$L$PI$$HCI_SendDataPkt
   100094e9     0001c3c0     0000deac   host_pcxx.a : l2cap_util.o (.text)
                             00017586   cc26xx_hci_tl_full_v41.a : hci_tl.o (.text)
HCI_bm_alloc              $Tramp$TT$L$PI$$HCI_bm_alloc
   100094a1     0001c3c8     0000e32e   host_pcxx.a : l2cap_util.o (.text)
                             00012a90   cc2640_ctrl_pcxx_41c.a : ll_common_patch.o (.text)
                             0001749c   cc26xx_hci_tl_full_v41.a : hci_tl.o (.text)
                             0001bd78   ble_dispatch.obj (.text)
HCI_LE_StartEncyptCmd     $Tramp$TT$L$PI$$HCI_LE_StartEncyptCmd
   10009ba9     0001c3d0     0000e6d4   host_pcxx.a : sm_intpairing.o (.text)
                             000179be   cc26xx_hci_tl_full_v41.a : hci_tl.o (.text)
LL_Encrypt                $Tramp$TT$L$PI$$LL_Encrypt
   100057d5     0001c3d8     0000eee0   host_pcxx.a : sm_mgr.o (.text)
HCI_LE_LtkReqReplyCmd     $Tramp$TT$L$PI$$HCI_LE_LtkReqReplyCmd
   10009bc5     0001c3e0     0000faf8   host_pcxx.a : sm_rsppairing.o (.text)
                             000179d4   cc26xx_hci_tl_full_v41.a : hci_tl.o (.text)
HCI_LE_LtkReqNegReplyCmd  $Tramp$TT$L$PI$$HCI_LE_LtkReqNegReplyCmd
   10009be1     0001c3e8     0000fb12   host_pcxx.a : sm_rsppairing.o (.text)
                             000179e8   cc26xx_hci_tl_full_v41.a : hci_tl.o (.text)
llMemCopySrc              $Tramp$TT$L$PI$$llMemCopySrc
   100089d9     0001c3f0     000104aa   cc2640_ctrl_pcxx_41c.a : ble_patch.o (.text)
                             000104b6                          : ble_patch.o (.text)
                             000104c2                          : ble_patch.o (.text)
                             000104ce                          : ble_patch.o (.text)
                             000104f2                          : ble_patch.o (.text)
                             00010536                          : ble_patch.o (.text)
                             00010542                          : ble_patch.o (.text)
                             0001059a                          : ble_patch.o (.text)
                             000105a6                          : ble_patch.o (.text)
                             000105b4                          : ble_patch.o (.text)
                             000105cc                          : ble_patch.o (.text)
                             00010672                          : ble_patch.o (.text)
                             00010680                          : ble_patch.o (.text)
                             000108ca                          : ble_patch.o (.text)
                             000108e2                          : ble_patch.o (.text)
                             000109ce                          : ble_patch.o (.text)
                             000109dc                          : ble_patch.o (.text)
LL_ENC_ReverseBytes       $Tramp$TT$L$PI$$LL_ENC_ReverseBytes
   1000b4ed     0001c3f8     000105be   cc2640_ctrl_pcxx_41c.a : ble_patch.o (.text)
                             000105d4                          : ble_patch.o (.text)
                             000108d4                          : ble_patch.o (.text)
                             000108ea                          : ble_patch.o (.text)
LL_ENC_GenDeviceSKD       $Tramp$TT$L$PI$$LL_ENC_GenDeviceSKD
   1000b541     0001c400     000105dc   cc2640_ctrl_pcxx_41c.a : ble_patch.o (.text)
                             00014d00                          : ll_patch.o (.text)
LL_ENC_GenDeviceIV        $Tramp$TT$L$PI$$LL_ENC_GenDeviceIV
   1000b555     0001c408     000105e4   cc2640_ctrl_pcxx_41c.a : ble_patch.o (.text)
                             00014d08                          : ll_patch.o (.text)
llEnqueueCtrlPkt          $Tramp$TT$L$PI$$llEnqueueCtrlPkt
   100080bd     0001c410     00010618   cc2640_ctrl_pcxx_41c.a : ble_patch.o (.text)
                             000107dc                          : ble_patch.o (.text)
                             00010b46                          : ble_patch.o (.text)
                             00010c88                          : ble_patch.o (.text)
                             00012ce0                          : ll_common_patch.o (.text)
                             00013bce                          : ll_master_end_causes_patch.o (.text)
                             00014d30                          : ll_patch.o (.text)
                             00014e2e                          : ll_patch.o (.text)
                             0001564c                          : ll_patch.o (.text)
                             00015d12                          : ll_patch.o (.text)
llSetupUnknownRsp         $Tramp$TT$L$PI$$llSetupUnknownRsp
   10008069     0001c418     0001081c   cc2640_ctrl_pcxx_41c.a : ble_patch.o (.text)
                             00010c1c                          : ble_patch.o (.text)
                             00013e02                          : ll_master_end_causes_patch.o (.text)
                             00016732                          : ll_slave_end_causes_patch.o (.text)
LL_ENC_AES128_Encrypt     $Tramp$TT$L$PI$$LL_ENC_AES128_Encrypt
   1000b5f5     0001c420     00010910   cc2640_ctrl_pcxx_41c.a : ble_patch.o (.text)
                             0001683e                          : ll_slave_end_causes_patch.o (.text)
LL_EncKeyRefreshCback     $Tramp$TT$L$PI$$LL_EncKeyRefreshCback
   100093dd     0001c428     00010940   cc2640_ctrl_pcxx_41c.a : ble_patch.o (.text)
                             00013cc2                          : ll_master_end_causes_patch.o (.text)
                             00016886                          : ll_slave_end_causes_patch.o (.text)
LL_EncChangeCback         $Tramp$TT$L$PI$$LL_EncChangeCback
   1000933d     0001c430     00010962   cc2640_ctrl_pcxx_41c.a : ble_patch.o (.text)
                             00013c20                          : ll_master_end_causes_patch.o (.text)
                             00013cce                          : ll_master_end_causes_patch.o (.text)
                             000168a4                          : ll_slave_end_causes_patch.o (.text)
llMoveTempTxDataEntries   $Tramp$TT$L$PI$$llMoveTempTxDataEntries
   1000afa1     0001c438     0001096c   cc2640_ctrl_pcxx_41c.a : ble_patch.o (.text)
                             00013c04                          : ll_master_end_causes_patch.o (.text)
                             00016aea                          : ll_slave_end_causes_patch.o (.text)
LL_RX_bm_alloc            $Tramp$TT$L$PI$$LL_RX_bm_alloc
   1000556d     0001c440     00010cec   cc2640_ctrl_pcxx_41c.a : ble_patch.o (.text)
                             00010d2e                          : ble_patch.o (.text)
                             00012b82                          : ll_common_patch.o (.text)
llPatchCM0                $Tramp$TT$L$PI$$llPatchCM0
   1000adb1     0001c448     00010da6   cc2640_ctrl_pcxx_41c.a : ble_patch.o (.text)
RFHAL_AllocRatChan        $Tramp$TT$L$PI$$RFHAL_AllocRatChan
   10018315     0001c450     00010daa   cc2640_ctrl_pcxx_41c.a : ble_patch.o (.text)
RFHAL_RegisterRatChanCallback  $Tramp$TT$L$PI$$RFHAL_RegisterRatChanCallback
   10018391     0001c458     00010db6   cc2640_ctrl_pcxx_41c.a : ble_patch.o (.text)
LL_CtrlToHostFlowControl  $Tramp$TT$L$PI$$LL_CtrlToHostFlowControl
   100058d5     0001c460     00010f12   cc2640_ctrl_pcxx_41c.a : hci_data_patch.o (.text)
HCI_SendCommandCompleteEvent  $Tramp$TT$L$PI$$HCI_SendCommandCompleteEvent
   10008c81     0001c468     00011566   cc2640_ctrl_pcxx_41c.a : hci_event_patch.o (.text)
HCI_CommandCompleteEvent  $Tramp$TT$L$PI$$HCI_CommandCompleteEvent
   10008add     0001c470     000115f6   cc2640_ctrl_pcxx_41c.a : hci_patch.o (.text)
                             000116b6                          : hci_patch.o (.text)
                             000116e4                          : hci_patch.o (.text)
                             00011718                          : hci_patch.o (.text)
                             00011768                          : hci_patch.o (.text)
                             000118b2                          : hci_patch.o (.text)
                             00017568   cc26xx_hci_tl_full_v41.a : hci_tl.o (.text)
HCI_CommandStatusEvent    $Tramp$TT$L$PI$$HCI_CommandStatusEvent
   10008ba1     0001c478     00011752   cc2640_ctrl_pcxx_41c.a : hci_patch.o (.text)
                             000117d4                          : hci_patch.o (.text)
LL_EXT_ResetSystem        $Tramp$TT$L$PI$$LL_EXT_ResetSystem
   100070d5     0001c480     000117ee   cc2640_ctrl_pcxx_41c.a : hci_patch.o (.text)
LL_ReadLocalVersionInfo   $Tramp$TT$L$PI$$LL_ReadLocalVersionInfo
   1000589d     0001c488     00011870   cc2640_ctrl_pcxx_41c.a : hci_patch.o (.text)
llEqAlreadyValidAddr      $Tramp$TT$L$PI$$llEqAlreadyValidAddr
   1000d795     0001c490     00011930   cc2640_ctrl_pcxx_41c.a : ll_access_address_patch.o (.text)
llGtSixConsecZerosOrOnes  $Tramp$TT$L$PI$$llGtSixConsecZerosOrOnes
   1000d6b1     0001c498     00011938   cc2640_ctrl_pcxx_41c.a : ll_access_address_patch.o (.text)
llEqSynchWord             $Tramp$TT$L$PI$$llEqSynchWord
   1000d6e5     0001c4a0     00011940   cc2640_ctrl_pcxx_41c.a : ll_access_address_patch.o (.text)
llOneBitSynchWordDiffer   $Tramp$TT$L$PI$$llOneBitSynchWordDiffer
   1000d6f5     0001c4a8     00011948   cc2640_ctrl_pcxx_41c.a : ll_access_address_patch.o (.text)
llEqualBytes              $Tramp$TT$L$PI$$llEqualBytes
   1000d709     0001c4b0     00011950   cc2640_ctrl_pcxx_41c.a : ll_access_address_patch.o (.text)
llGtTwentyFourTransitions  $Tramp$TT$L$PI$$llGtTwentyFourTransitions
   1000d731     0001c4b8     00011958   cc2640_ctrl_pcxx_41c.a : ll_access_address_patch.o (.text)
llLtTwoChangesInLastSixBits  $Tramp$TT$L$PI$$llLtTwoChangesInLastSixBits
   1000d761     0001c4c0     00011960   cc2640_ctrl_pcxx_41c.a : ll_access_address_patch.o (.text)
llFreeTask                $Tramp$TT$L$PI$$llFreeTask
   1000abed     0001c4c8     00011990   cc2640_ctrl_pcxx_41c.a : ll_adv_end_causes_patch.o (.text)
                             00011ab4                          : ll_adv_end_causes_patch.o (.text)
                             0001254a                          : ll_common_patch.o (.text)
                             000134ec                          : ll_init_end_causes_patch.o (.text)
                             000159ea                          : ll_patch.o (.text)
                             00015c4c                          : ll_patch.o (.text)
LL_ENC_GeneratePseudoRandNum  $Tramp$TT$L$PI$$LL_ENC_GeneratePseudoRandNum
   1000b50d     0001c4d0     000119a4   cc2640_ctrl_pcxx_41c.a : ll_adv_end_causes_patch.o (.text)
                             00011a42                          : ll_adv_end_causes_patch.o (.text)
                             00015bc4                          : ll_patch.o (.text)
llScheduler               $Tramp$TT$L$PI$$llScheduler
   1000a335     0001c4d8     000119ce   cc2640_ctrl_pcxx_41c.a : ll_adv_end_causes_patch.o (.text)
                             00011a7e                          : ll_adv_end_causes_patch.o (.text)
                             00011e32                          : ll_adv_end_causes_patch.o (.text)
                             0001374c                          : ll_init_end_causes_patch.o (.text)
                             000137a6                          : ll_init_end_causes_patch.o (.text)
                             0001395a                          : ll_master_end_causes_patch.o (.text)
                             0001584a                          : ll_patch.o (.text)
                             00015888                          : ll_patch.o (.text)
                             0001596e                          : ll_patch.o (.text)
                             000159ac                          : ll_patch.o (.text)
                             00015bfe                          : ll_patch.o (.text)
                             00015c76                          : ll_patch.o (.text)
                             00015f4c                          : ll_scan_end_causes_patch.o (.text)
                             000163c6                          : ll_slave_end_causes_patch.o (.text)
llConvertLstoToEvent      $Tramp$TT$L$PI$$llConvertLstoToEvent
   10008721     0001c4e0     00011bce   cc2640_ctrl_pcxx_41c.a : ll_adv_end_causes_patch.o (.text)
                             000126fa                          : ll_common_patch.o (.text)
                             0001353c                          : ll_init_end_causes_patch.o (.text)
                             000139a4                          : ll_master_end_causes_patch.o (.text)
                             000164ba                          : ll_slave_end_causes_patch.o (.text)
llConvertCtrlProcTimeoutToEvent  $Tramp$TT$L$PI$$llConvertCtrlProcTimeoutToEvent
   10008741     0001c4e8     00011bd8   cc2640_ctrl_pcxx_41c.a : ll_adv_end_causes_patch.o (.text)
                             00012752                          : ll_common_patch.o (.text)
                             00013546                          : ll_init_end_causes_patch.o (.text)
                             000139f4                          : ll_master_end_causes_patch.o (.text)
                             00016518                          : ll_slave_end_causes_patch.o (.text)
llCalcScaFactor           $Tramp$TT$L$PI$$llCalcScaFactor
   1000d94d     0001c4f0     00011bf2   cc2640_ctrl_pcxx_41c.a : ll_adv_end_causes_patch.o (.text)
llConnTerminate           $Tramp$TT$L$PI$$llConnTerminate
   10008631     0001c4f8     00011d02   cc2640_ctrl_pcxx_41c.a : ll_adv_end_causes_patch.o (.text)
                             000135ea                          : ll_init_end_causes_patch.o (.text)
                             0001392e                          : ll_master_end_causes_patch.o (.text)
                             00013e18                          : ll_master_end_causes_patch.o (.text)
                             00015ea2                          : ll_patch.o (.text)
                             00016342                          : ll_slave_end_causes_patch.o (.text)
                             000166cc                          : ll_slave_end_causes_patch.o (.text)
                             00016a34                          : ll_slave_end_causes_patch.o (.text)
RFHAL_InitDataQueue       $Tramp$TT$L$PI$$RFHAL_InitDataQueue
   100183b9     0001c500     00011d14   cc2640_ctrl_pcxx_41c.a : ll_adv_end_causes_patch.o (.text)
                             000124f6                          : ll_common_patch.o (.text)
                             00012526                          : ll_common_patch.o (.text)
                             000135fc                          : ll_init_end_causes_patch.o (.text)
llEventDelta              $Tramp$TT$L$PI$$llEventDelta
   10008719     0001c508     00011f24   cc2640_ctrl_pcxx_41c.a : ll_common_patch.o (.text)
                             0001268e                          : ll_common_patch.o (.text)
                             0001280c                          : ll_common_patch.o (.text)
                             00012f08                          : ll_common_patch.o (.text)
                             00016488                          : ll_slave_end_causes_patch.o (.text)
                             000164d4                          : ll_slave_end_causes_patch.o (.text)
LL_TX_bm_alloc            $Tramp$TT$L$PI$$LL_TX_bm_alloc
   10005549     0001c510     000120e4   cc2640_ctrl_pcxx_41c.a : ll_common_patch.o (.text)
                             00012132                          : ll_common_patch.o (.text)
                             000121b2                          : ll_common_patch.o (.text)
                             0001220e                          : ll_common_patch.o (.text)
                             00012288                          : ll_common_patch.o (.text)
                             000122cc                          : ll_common_patch.o (.text)
                             00012378                          : ll_common_patch.o (.text)
                             00013066                          : ll_common_patch.o (.text)
RFHAL_FreeNextTxDataEntry  $Tramp$TT$L$PI$$RFHAL_FreeNextTxDataEntry
   10018485     0001c518     0001244a   cc2640_ctrl_pcxx_41c.a : ll_common_patch.o (.text)
                             000124c4                          : ll_common_patch.o (.text)
RFHAL_GetNextDataEntry    $Tramp$TT$L$PI$$RFHAL_GetNextDataEntry
   100184cd     0001c520     00012450   cc2640_ctrl_pcxx_41c.a : ll_common_patch.o (.text)
                             000124ca                          : ll_common_patch.o (.text)
                             0001250a                          : ll_common_patch.o (.text)
                             0001354c                          : ll_init_end_causes_patch.o (.text)
                             00015f58                          : ll_scan_end_causes_patch.o (.text)
                             00016faa                          : ll_isr.o (.text)
RFHAL_GetTempDataEntry    $Tramp$TT$L$PI$$RFHAL_GetTempDataEntry
   100184d1     0001c528     000124d4   cc2640_ctrl_pcxx_41c.a : ll_common_patch.o (.text)
                             00013126                          : ll_common_patch.o (.text)
llReleaseConnId           $Tramp$TT$L$PI$$llReleaseConnId
   10008429     0001c530     00012544   cc2640_ctrl_pcxx_41c.a : ll_common_patch.o (.text)
                             00015b28                          : ll_patch.o (.text)
                             00015c5e                          : ll_patch.o (.text)
llTimeCompare             $Tramp$TT$L$PI$$llTimeCompare
   1000d8c9     0001c538     0001260e   cc2640_ctrl_pcxx_41c.a : ll_common_patch.o (.text)
                             00012662                          : ll_common_patch.o (.text)
                             000126b6                          : ll_common_patch.o (.text)
                             000129de                          : ll_common_patch.o (.text)
                             00012c36                          : ll_common_patch.o (.text)
llTimeDelta               $Tramp$TT$L$PI$$llTimeDelta
   1000d8f5     0001c540     00012672   cc2640_ctrl_pcxx_41c.a : ll_common_patch.o (.text)
                             00012c4e                          : ll_common_patch.o (.text)
HCI_HardwareErrorEvent    $Tramp$TT$L$PI$$HCI_HardwareErrorEvent
   10008bf5     0001c548     0001287e   cc2640_ctrl_pcxx_41c.a : ll_common_patch.o (.text)
                             000128aa                          : ll_common_patch.o (.text)
                             00012ab4                          : ll_common_patch.o (.text)
                             00012bbe                          : ll_common_patch.o (.text)
                             00012d86                          : ll_common_patch.o (.text)
                             0001323c                          : ll_common_patch.o (.text)
                             00013246                          : ll_common_patch.o (.text)
                             000149cc                          : ll_patch.o (.text)
                             00014f22                          : ll_patch.o (.text)
llGetCurrentTask          $Tramp$TT$L$PI$$llGetCurrentTask
   1000ac3d     0001c550     00012c3c   cc2640_ctrl_pcxx_41c.a : ll_common_patch.o (.text)
                             0001489a                          : ll_patch.o (.text)
                             00015868                          : ll_patch.o (.text)
                             0001598c                          : ll_patch.o (.text)
                             00015c32                          : ll_patch.o (.text)
                             00015e7c                          : ll_patch.o (.text)
                             00015e86                          : ll_patch.o (.text)
LL_ConnActive             $Tramp$TT$L$PI$$LL_ConnActive
   1000678d     0001c558     00012cae   cc2640_ctrl_pcxx_41c.a : ll_common_patch.o (.text)
                             00014ba0                          : ll_patch.o (.text)
                             00014c72                          : ll_patch.o (.text)
                             00014c90                          : ll_patch.o (.text)
                             00014d64                          : ll_patch.o (.text)
                             00014db2                          : ll_patch.o (.text)
                             00014dee                          : ll_patch.o (.text)
                             00014f2c                          : ll_patch.o (.text)
                             000154be                          : ll_patch.o (.text)
                             000155ce                          : ll_patch.o (.text)
                             00015dca                          : ll_patch.o (.text)
                             00015dfa                          : ll_patch.o (.text)
                             00015e74                          : ll_patch.o (.text)
llSetupRejectInd          $Tramp$TT$L$PI$$llSetupRejectInd
   10007df5     0001c560     0001303a   cc2640_ctrl_pcxx_41c.a : ll_common_patch.o (.text)
                             00016904                          : ll_slave_end_causes_patch.o (.text)
LL_ENC_Init               $Tramp$TT$L$PI$$LL_ENC_Init
   1000b4c9     0001c568     000133b6   cc2640_ctrl_pcxx_41c.a : ll_enc_patch.o (.text)
                             00013424                          : ll_enc_patch.o (.text)
                             00014a60                          : ll_patch.o (.text)
                             00016b04                          : ll_sleep.o (.text)
LL_ENC_LoadKey            $Tramp$TT$L$PI$$LL_ENC_LoadKey
   1000b58d     0001c570     000133be   cc2640_ctrl_pcxx_41c.a : ll_enc_patch.o (.text)
                             0001342c                          : ll_enc_patch.o (.text)
LL_ENC_GenerateNonce      $Tramp$TT$L$PI$$LL_ENC_GenerateNonce
   1000b569     0001c578     000133e0   cc2640_ctrl_pcxx_41c.a : ll_enc_patch.o (.text)
                             00013450                          : ll_enc_patch.o (.text)
LL_ENC_EncryptMsg         $Tramp$TT$L$PI$$LL_ENC_EncryptMsg
   1000b721     0001c580     000133ec   cc2640_ctrl_pcxx_41c.a : ll_enc_patch.o (.text)
LL_ENC_DecryptMsg         $Tramp$TT$L$PI$$LL_ENC_DecryptMsg
   1000b851     0001c588     00013460   cc2640_ctrl_pcxx_41c.a : ll_enc_patch.o (.text)
llSetupUpdateParamReq     $Tramp$TT$L$PI$$llSetupUpdateParamReq
   100079c9     0001c590     00013b80   cc2640_ctrl_pcxx_41c.a : ll_master_end_causes_patch.o (.text)
llSetupEncReq             $Tramp$TT$L$PI$$llSetupEncReq
   10007aed     0001c598     00013c38   cc2640_ctrl_pcxx_41c.a : ll_master_end_causes_patch.o (.text)
llSetupStartEncRsp        $Tramp$TT$L$PI$$llSetupStartEncRsp
   10007ca9     0001c5a0     00013c6a   cc2640_ctrl_pcxx_41c.a : ll_master_end_causes_patch.o (.text)
                             000168b6                          : ll_slave_end_causes_patch.o (.text)
llSetupPauseEncReq        $Tramp$TT$L$PI$$llSetupPauseEncReq
   10007cfd     0001c5a8     00013c96   cc2640_ctrl_pcxx_41c.a : ll_master_end_causes_patch.o (.text)
llSetupPauseEncRsp        $Tramp$TT$L$PI$$llSetupPauseEncRsp
   10007d55     0001c5b0     00013cd6   cc2640_ctrl_pcxx_41c.a : ll_master_end_causes_patch.o (.text)
                             000168d0                          : ll_slave_end_causes_patch.o (.text)
LL_ReadRemoteVersionInfoCback  $Tramp$TT$L$PI$$LL_ReadRemoteVersionInfoCback
   100091e1     0001c5b8     00013d50   cc2640_ctrl_pcxx_41c.a : ll_master_end_causes_patch.o (.text)
                             00013d62                          : ll_master_end_causes_patch.o (.text)
                             0001698c                          : ll_slave_end_causes_patch.o (.text)
                             0001699e                          : ll_slave_end_causes_patch.o (.text)
llSetupVersionIndReq      $Tramp$TT$L$PI$$llSetupVersionIndReq
   10007f29     0001c5c0     00013d6e   cc2640_ctrl_pcxx_41c.a : ll_master_end_causes_patch.o (.text)
                             000169aa                          : ll_slave_end_causes_patch.o (.text)
WL_Init                   $Tramp$TT$L$PI$$WL_Init
   1000d189     0001c5c8     00014a5c   cc2640_ctrl_pcxx_41c.a : ll_patch.o (.text)
LL_ClearWhiteList         $Tramp$TT$L$PI$$LL_ClearWhiteList
   10005719     0001c5d0     00014a64   cc2640_ctrl_pcxx_41c.a : ll_patch.o (.text)
llReleaseAllConnId        $Tramp$TT$L$PI$$llReleaseAllConnId
   10008461     0001c5d8     00014ad6   cc2640_ctrl_pcxx_41c.a : ll_patch.o (.text)
LL_ENC_GenerateTrueRandNum  $Tramp$TT$L$PI$$LL_ENC_GenerateTrueRandNum
   1000b51d     0001c5e0     00014d48   cc2640_ctrl_pcxx_41c.a : ll_patch.o (.text)
HCI_DataBufferOverflowEvent  $Tramp$TT$L$PI$$HCI_DataBufferOverflowEvent
   10008a2d     0001c5e8     00014f4a   cc2640_ctrl_pcxx_41c.a : ll_patch.o (.text)
LL_DirectTestEndDoneCback  $Tramp$TT$L$PI$$LL_DirectTestEndDoneCback
   10009471     0001c5f0     0001546c   cc2640_ctrl_pcxx_41c.a : ll_patch.o (.text)
                             000154a2                          : ll_patch.o (.text)
llSetupAdv                $Tramp$TT$L$PI$$llSetupAdv
   100073e5     0001c5f8     0001580a   cc2640_ctrl_pcxx_41c.a : ll_patch.o (.text)
llGetNumTasks             $Tramp$TT$L$PI$$llGetNumTasks
   1000ace1     0001c600     00015860   cc2640_ctrl_pcxx_41c.a : ll_patch.o (.text)
                             00015984                          : ll_patch.o (.text)
                             00015c2a                          : ll_patch.o (.text)
llSetupScan               $Tramp$TT$L$PI$$llSetupScan
   100075fd     0001c608     00015962   cc2640_ctrl_pcxx_41c.a : ll_patch.o (.text)
llPendingUpdateParam      $Tramp$TT$L$PI$$llPendingUpdateParam
   10008665     0001c610     00015aba   cc2640_ctrl_pcxx_41c.a : ll_patch.o (.text)
llGenerateCRC             $Tramp$TT$L$PI$$llGenerateCRC
   100086b9     0001c618     00015b9e   cc2640_ctrl_pcxx_41c.a : ll_patch.o (.text)
llGenerateValidAccessAddr  $Tramp$TT$L$PI$$llGenerateValidAccessAddr
   1000d695     0001c620     00015ba4   cc2640_ctrl_pcxx_41c.a : ll_patch.o (.text)
llSetupInit               $Tramp$TT$L$PI$$llSetupInit
   100077b5     0001c628     00015be8   cc2640_ctrl_pcxx_41c.a : ll_patch.o (.text)
llAtLeastTwoChans         $Tramp$TT$L$PI$$llAtLeastTwoChans
   100082f1     0001c630     00015caa   cc2640_ctrl_pcxx_41c.a : ll_patch.o (.text)
llGetAdvChanPDU           $Tramp$TT$L$PI$$llGetAdvChanPDU
   1000d4ad     0001c638     00015f7e   cc2640_ctrl_pcxx_41c.a : ll_scan_end_causes_patch.o (.text)
WL_AddEntry               $Tramp$TT$L$PI$$WL_AddEntry
   1000d2d9     0001c640     00015fac   cc2640_ctrl_pcxx_41c.a : ll_scan_end_causes_patch.o (.text)
LL_AdvReportCback         $Tramp$TT$L$PI$$LL_AdvReportCback
   10008d81     0001c648     00015fda   cc2640_ctrl_pcxx_41c.a : ll_scan_end_causes_patch.o (.text)
RFHAL_NextDataEntryDone   $Tramp$TT$L$PI$$RFHAL_NextDataEntryDone
   100184d5     0001c650     00015fe0   cc2640_ctrl_pcxx_41c.a : ll_scan_end_causes_patch.o (.text)
                             000170c4                          : ll_isr.o (.text)
llCheckForLstoDuringSL    $Tramp$TT$L$PI$$llCheckForLstoDuringSL
   1000c1b5     0001c658     00016428   cc2640_ctrl_pcxx_41c.a : ll_slave_end_causes_patch.o (.text)
llEventInRange            $Tramp$TT$L$PI$$llEventInRange
   100086f1     0001c660     0001644a   cc2640_ctrl_pcxx_41c.a : ll_slave_end_causes_patch.o (.text)
                             0001646a                          : ll_slave_end_causes_patch.o (.text)
LL_EncLtkReqCback         $Tramp$TT$L$PI$$LL_EncLtkReqCback
   1000925d     0001c668     000167d8   cc2640_ctrl_pcxx_41c.a : ll_slave_end_causes_patch.o (.text)
llSetupEncRsp             $Tramp$TT$L$PI$$llSetupEncRsp
   10007b95     0001c670     000167e0   cc2640_ctrl_pcxx_41c.a : ll_slave_end_causes_patch.o (.text)
WL_ClearEntry             $Tramp$TT$L$PI$$WL_ClearEntry
   1000d1f5     0001c678     00016b46   cc2640_ctrl_pcxx_41c.a : ll_wl_patch.o (.text)
HCI_ReadRemoteVersionInfoCmd  $Tramp$TT$L$PI$$HCI_ReadRemoteVersionInfoCmd
   10009541     0001c680     00017678   cc26xx_hci_tl_full_v41.a : hci_tl.o (.text)
                             0001bc9a   ble_dispatch.obj (.text)
HCI_SetEventMaskCmd       $Tramp$TT$L$PI$$HCI_SetEventMaskCmd
   10009571     0001c688     00017684   cc26xx_hci_tl_full_v41.a : hci_tl.o (.text)
                             0001bc92   ble_dispatch.obj (.text)
HCI_ReadTransmitPowerLevelCmd  $Tramp$TT$L$PI$$HCI_ReadTransmitPowerLevelCmd
   100095d1     0001c690     000176b0   cc26xx_hci_tl_full_v41.a : hci_tl.o (.text)
                             0001bc84   ble_dispatch.obj (.text)
HCI_ReadLocalSupportedFeaturesCmd  $Tramp$TT$L$PI$$HCI_ReadLocalSupportedFeaturesCmd
   1000973d     0001c698     0001774e   cc26xx_hci_tl_full_v41.a : hci_tl.o (.text)
                             0001bc66   ble_dispatch.obj (.text)
HCI_LE_ReadLocalSupportedFeaturesCmd  $Tramp$TT$L$PI$$HCI_LE_ReadLocalSupportedFeaturesCmd
   10009829     0001c6a0     00017782   cc26xx_hci_tl_full_v41.a : hci_tl.o (.text)
                             0001bc4a   ble_dispatch.obj (.text)
HCI_LE_ReadAdvChanTxPowerCmd  $Tramp$TT$L$PI$$HCI_LE_ReadAdvChanTxPowerCmd
   100098f5     0001c6a8     000177f8   cc26xx_hci_tl_full_v41.a : hci_tl.o (.text)
                             0001bc44   ble_dispatch.obj (.text)
HCI_LE_ReadWhiteListSizeCmd  $Tramp$TT$L$PI$$HCI_LE_ReadWhiteListSizeCmd
   100099c9     0001c6b0     000178be   cc26xx_hci_tl_full_v41.a : hci_tl.o (.text)
                             0001bc3e   ble_dispatch.obj (.text)
HCI_LE_ClearWhiteListCmd  $Tramp$TT$L$PI$$HCI_LE_ClearWhiteListCmd
   100099f9     0001c6b8     000178c8   cc26xx_hci_tl_full_v41.a : hci_tl.o (.text)
                             0001bc38   ble_dispatch.obj (.text)
HCI_LE_AddWhiteListCmd    $Tramp$TT$L$PI$$HCI_LE_AddWhiteListCmd
   10009a15     0001c6c0     000178d6   cc26xx_hci_tl_full_v41.a : hci_tl.o (.text)
                             0001bc32   ble_dispatch.obj (.text)
HCI_LE_RemoveWhiteListCmd  $Tramp$TT$L$PI$$HCI_LE_RemoveWhiteListCmd
   10009a31     0001c6c8     000178e4   cc26xx_hci_tl_full_v41.a : hci_tl.o (.text)
                             0001bc28   ble_dispatch.obj (.text)
HCI_LE_SetHostChanClassificationCmd  $Tramp$TT$L$PI$$HCI_LE_SetHostChanClassificationCmd
   10009a85     0001c6d0     0001794c   cc26xx_hci_tl_full_v41.a : hci_tl.o (.text)
                             0001bc1e   ble_dispatch.obj (.text)
HCI_LE_ReadChannelMapCmd  $Tramp$TT$L$PI$$HCI_LE_ReadChannelMapCmd
   10009aa1     0001c6d8     00017960   cc26xx_hci_tl_full_v41.a : hci_tl.o (.text)
                             0001bc16   ble_dispatch.obj (.text)
HCI_ReverseBytes          $Tramp$TT$L$PI$$HCI_ReverseBytes
   1000d7cd     0001c6e0     00017982   cc26xx_hci_tl_full_v41.a : hci_tl.o (.text)
                             0001798c                            : hci_tl.o (.text)
                             00017b58                            : hci_tl.o (.text)
                             00017b62                            : hci_tl.o (.text)
HCI_LE_EncryptCmd         $Tramp$TT$L$PI$$HCI_LE_EncryptCmd
   10009af5     0001c6e8     00017996   cc26xx_hci_tl_full_v41.a : hci_tl.o (.text)
                             0001bc06   ble_dispatch.obj (.text)
HCI_LE_RandCmd            $Tramp$TT$L$PI$$HCI_LE_RandCmd
   10009b51     0001c6f0     000179a0   cc26xx_hci_tl_full_v41.a : hci_tl.o (.text)
HCI_LE_ReadSupportedStatesCmd  $Tramp$TT$L$PI$$HCI_LE_ReadSupportedStatesCmd
   10009c15     0001c6f8     000179f2   cc26xx_hci_tl_full_v41.a : hci_tl.o (.text)
                             0001bbfc   ble_dispatch.obj (.text)
HCI_LE_TestEndCmd         $Tramp$TT$L$PI$$HCI_LE_TestEndCmd
   10009c8d     0001c700     00017a18   cc26xx_hci_tl_full_v41.a : hci_tl.o (.text)
                             0001bbe0   ble_dispatch.obj (.text)
HCI_EXT_SetRxGainCmd      $Tramp$TT$L$PI$$HCI_EXT_SetRxGainCmd
   10009cd5     0001c708     00017a96   cc26xx_hci_tl_full_v41.a : hci_tl.o (.text)
HCI_EXT_SetTxPowerCmd     $Tramp$TT$L$PI$$HCI_EXT_SetTxPowerCmd
   10009d09     0001c710     00017aa2   cc26xx_hci_tl_full_v41.a : hci_tl.o (.text)
                             0001bbda   ble_dispatch.obj (.text)
HCI_EXT_ExtendRfRangeCmd  $Tramp$TT$L$PI$$HCI_EXT_ExtendRfRangeCmd
   1000a095     0001c718     00017aac   cc26xx_hci_tl_full_v41.a : hci_tl.o (.text)
HCI_EXT_HaltDuringRfCmd   $Tramp$TT$L$PI$$HCI_EXT_HaltDuringRfCmd
   1000a0d1     0001c720     00017ab8   cc26xx_hci_tl_full_v41.a : hci_tl.o (.text)
HCI_EXT_SetMaxDtmTxPowerCmd  $Tramp$TT$L$PI$$HCI_EXT_SetMaxDtmTxPowerCmd
   10009fd1     0001c728     00017ac4   cc26xx_hci_tl_full_v41.a : hci_tl.o (.text)
                             0001bb7c   ble_dispatch.obj (.text)
HCI_EXT_MapPmIoPortCmd    $Tramp$TT$L$PI$$HCI_EXT_MapPmIoPortCmd
   10009ff1     0001c730     00017ad2   cc26xx_hci_tl_full_v41.a : hci_tl.o (.text)
HCI_EXT_DisconnectImmedCmd  $Tramp$TT$L$PI$$HCI_EXT_DisconnectImmedCmd
   1000a011     0001c738     00017ae6   cc26xx_hci_tl_full_v41.a : hci_tl.o (.text)
                             0001bb74   ble_dispatch.obj (.text)
HCI_EXT_PacketErrorRateCmd  $Tramp$TT$L$PI$$HCI_EXT_PacketErrorRateCmd
   1000a031     0001c740     00017afc   cc26xx_hci_tl_full_v41.a : hci_tl.o (.text)
                             0001bb6c   ble_dispatch.obj (.text)
HCI_EXT_OverlappedProcessingCmd  $Tramp$TT$L$PI$$HCI_EXT_OverlappedProcessingCmd
   1000a195     0001c748     00017b08   cc26xx_hci_tl_full_v41.a : hci_tl.o (.text)
HCI_EXT_NumComplPktsLimitCmd  $Tramp$TT$L$PI$$HCI_EXT_NumComplPktsLimitCmd
   1000a1b5     0001c750     00017b16   cc26xx_hci_tl_full_v41.a : hci_tl.o (.text)
                             0001bb1e   ble_dispatch.obj (.text)
HCI_EXT_OnePktPerEvtCmd   $Tramp$TT$L$PI$$HCI_EXT_OnePktPerEvtCmd
   10009d45     0001c758     00017b32   cc26xx_hci_tl_full_v41.a : hci_tl.o (.text)
                             0001bbd2   ble_dispatch.obj (.text)
HCI_EXT_ClkDivOnHaltCmd   $Tramp$TT$L$PI$$HCI_EXT_ClkDivOnHaltCmd
   10009d79     0001c760     00017b3e   cc26xx_hci_tl_full_v41.a : hci_tl.o (.text)
HCI_EXT_DeclareNvUsageCmd  $Tramp$TT$L$PI$$HCI_EXT_DeclareNvUsageCmd
   10009dad     0001c768     00017b4a   cc26xx_hci_tl_full_v41.a : hci_tl.o (.text)
HCI_EXT_DecryptCmd        $Tramp$TT$L$PI$$HCI_EXT_DecryptCmd
   10009dd1     0001c770     00017b6c   cc26xx_hci_tl_full_v41.a : hci_tl.o (.text)
                             0001bbca   ble_dispatch.obj (.text)
HCI_EXT_SetLocalSupportedFeaturesCmd  $Tramp$TT$L$PI$$HCI_EXT_SetLocalSupportedFeaturesCmd
   10009e2d     0001c778     00017b78   cc26xx_hci_tl_full_v41.a : hci_tl.o (.text)
                             0001bbc0   ble_dispatch.obj (.text)
HCI_EXT_SetFastTxResponseTimeCmd  $Tramp$TT$L$PI$$HCI_EXT_SetFastTxResponseTimeCmd
   10009e4d     0001c780     00017b84   cc26xx_hci_tl_full_v41.a : hci_tl.o (.text)
                             0001bbb8   ble_dispatch.obj (.text)
HCI_EXT_SetSlaveLatencyOverrideCmd  $Tramp$TT$L$PI$$HCI_EXT_SetSlaveLatencyOverrideCmd
   10009e6d     0001c788     00017b90   cc26xx_hci_tl_full_v41.a : hci_tl.o (.text)
                             0001bb40   ble_dispatch.obj (.text)
HCI_EXT_SetSCACmd         $Tramp$TT$L$PI$$HCI_EXT_SetSCACmd
   10009f49     0001c790     00017ba4   cc26xx_hci_tl_full_v41.a : hci_tl.o (.text)
                             0001bb8a   ble_dispatch.obj (.text)
HCI_EXT_BuildRevisionCmd  $Tramp$TT$L$PI$$HCI_EXT_BuildRevisionCmd
   1000a109     0001c798     00017bbc   cc26xx_hci_tl_full_v41.a : hci_tl.o (.text)
                             0001bb38   ble_dispatch.obj (.text)
HCI_EXT_ModemTestTxCmd    $Tramp$TT$L$PI$$HCI_EXT_ModemTestTxCmd
   10009e8d     0001c7a0     00017bf4   cc26xx_hci_tl_full_v41.a : hci_tl.o (.text)
                             0001bbb0   ble_dispatch.obj (.text)
HCI_EXT_ModemHopTestTxCmd  $Tramp$TT$L$PI$$HCI_EXT_ModemHopTestTxCmd
   10009ead     0001c7a8     00017bfe   cc26xx_hci_tl_full_v41.a : hci_tl.o (.text)
                             0001bba6   ble_dispatch.obj (.text)
HCI_EXT_ModemTestRxCmd    $Tramp$TT$L$PI$$HCI_EXT_ModemTestRxCmd
   10009ecd     0001c7b0     00017c0a   cc26xx_hci_tl_full_v41.a : hci_tl.o (.text)
                             0001bba0   ble_dispatch.obj (.text)
HCI_EXT_EndModemTestCmd   $Tramp$TT$L$PI$$HCI_EXT_EndModemTestCmd
   10009eed     0001c7b8     00017c14   cc26xx_hci_tl_full_v41.a : hci_tl.o (.text)
                             0001bb98   ble_dispatch.obj (.text)
HCI_EXT_SetBDADDRCmd      $Tramp$TT$L$PI$$HCI_EXT_SetBDADDRCmd
   10009f0d     0001c7c0     00017c20   cc26xx_hci_tl_full_v41.a : hci_tl.o (.text)
                             0001bb92   ble_dispatch.obj (.text)
HCI_EXT_EnablePTMCmd      $Tramp$TT$L$PI$$HCI_EXT_EnablePTMCmd
   10009f69     0001c7c8     00017c2a   cc26xx_hci_tl_full_v41.a : hci_tl.o (.text)
                             0001bb82   ble_dispatch.obj (.text)
HCI_EXT_SetFreqTuneCmd    $Tramp$TT$L$PI$$HCI_EXT_SetFreqTuneCmd
   10009f81     0001c7d0     00017c36   cc26xx_hci_tl_full_v41.a : hci_tl.o (.text)
HCI_EXT_SaveFreqTuneCmd   $Tramp$TT$L$PI$$HCI_EXT_SaveFreqTuneCmd
   10009fb1     0001c7d8     00017c40   cc26xx_hci_tl_full_v41.a : hci_tl.o (.text)
LL_PseudoRand             $Tramp$TT$L$PI$$LL_PseudoRand
   10005801     0001c7e0     0001853a   onboard.obj (.text)
HCI_SendControllerToHostEvent  $Tramp$TT$L$PI$$HCI_SendControllerToHostEvent
   10008d31     0001c7e8     00019f14   ble_dispatch.obj (.text)
                             0001b300   ble_dispatch.obj (.text)
HCI_EXT_AdvEventNoticeCmd  $Tramp$TT$L$PI$$HCI_EXT_AdvEventNoticeCmd
   1000a0f1     0001c7f0     0001bb58   ble_dispatch.obj (.text)
HCI_EXT_PERbyChanCmd      $Tramp$TT$L$PI$$HCI_EXT_PERbyChanCmd
   1000a075     0001c7f8     0001bb62   ble_dispatch.obj (.text)

[155 trampolines]
[376 trampoline calls]


GLOBAL SYMBOLS: SORTED ALPHABETICALLY BY Name 

address   name                                  
-------   ----                                  
10014c00  A1_rw                                 
10005000  A1_rw_1                               
10019ffe  A2_rw                                 
1000dffe  A2_rw_1                               
10019ffc  A3_rw                                 
1000dffc  A3_rw_1                               
20004f2c  A4_rw                                 
200048e8  A4_rw_1                               
20004f7c  ACCX                                  
20004f80  ACCY                                  
20004f84  ACCZ                                  
10015229  ATOMICPATTERN                         
00008437  ATT_BuildErrorRsp                     
00008467  ATT_BuildExchangeMTUReq               
00008473  ATT_BuildExchangeMTURsp               
0000879d  ATT_BuildExecuteWriteReq              
00008501  ATT_BuildFindByTypeValueReq           
0000855d  ATT_BuildFindByTypeValueRsp           
00008499  ATT_BuildFindInfoReq                  
000084a5  ATT_BuildFindInfoRsp                  
000087c1  ATT_BuildHandleValueInd               
00008723  ATT_BuildPrepareWriteReq              
0000874d  ATT_BuildPrepareWriteRsp              
00008667  ATT_BuildReadBlobReq                  
000086a5  ATT_BuildReadBlobRsp                  
000086e5  ATT_BuildReadByGrpTypeRsp             
0000857f  ATT_BuildReadByTypeReq                
000085eb  ATT_BuildReadByTypeRsp                
000086b7  ATT_BuildReadMultiReq                 
000086df  ATT_BuildReadMultiRsp                 
0000860f  ATT_BuildReadReq                      
0000862b  ATT_BuildReadRsp                      
0000865b  ATT_BuildWriteReq                     
00008891  ATT_CompareUUID                       
000088e1  ATT_ConvertUUIDto128                  
00008909  ATT_ConvertUUIDto16                   
000081f7  ATT_ErrorRsp                          
00008053  ATT_ExchangeMTUReq                    
00008209  ATT_ExchangeMTURsp                    
0000818d  ATT_ExecuteWriteReq                   
0000833b  ATT_ExecuteWriteRsp                   
0000808d  ATT_FindByTypeValueReq                
00008251  ATT_FindByTypeValueRsp                
00008079  ATT_FindInfoReq                       
00008221  ATT_FindInfoRsp                       
00008971  ATT_GetMTU                            
00008993  ATT_GetParamValue                     
00008199  ATT_HandleValueCfm                    
0000835d  ATT_HandleValueInd                    
00008347  ATT_HandleValueNoti                   
00008449  ATT_ParseErrorRsp                     
00008469  ATT_ParseExchangeMTUReq               
00008483  ATT_ParseExchangeMTURsp               
000087a5  ATT_ParseExecuteWriteReq              
000087b7  ATT_ParseExecuteWriteRsp              
0000851b  ATT_ParseFindByTypeValueReq           
00008565  ATT_ParseFindByTypeValueRsp           
0000849b  ATT_ParseFindInfoReq                  
000084bd  ATT_ParseFindInfoRsp                  
00008801  ATT_ParseHandleValueCfm               
000087d5  ATT_ParseHandleValueInd               
000083dd  ATT_ParsePacket                       
00008725  ATT_ParsePrepareWriteReq              
0000876b  ATT_ParsePrepareWriteRsp              
00008681  ATT_ParseReadBlobReq                  
000086a9  ATT_ParseReadBlobRsp                  
000086f7  ATT_ParseReadByGrpTypeRsp             
000085af  ATT_ParseReadByTypeReq                
000085ed  ATT_ParseReadByTypeRsp                
000086bf  ATT_ParseReadMultiReq                 
000086e3  ATT_ParseReadMultiRsp                 
00008611  ATT_ParseReadReq                      
0000862f  ATT_ParseReadRsp                      
00008631  ATT_ParseWriteReq                     
0000865d  ATT_ParseWriteRsp                     
0000816d  ATT_PrepareWriteReq                   
00008321  ATT_PrepareWriteRsp                   
000080d5  ATT_ReadBlobReq                       
000082b9  ATT_ReadBlobRsp                       
0000810d  ATT_ReadByGrpTypeReq                  
000082f3  ATT_ReadByGrpTypeRsp                  
000080b1  ATT_ReadByTypeReq                     
00008271  ATT_ReadByTypeRsp                     
000080e9  ATT_ReadMultiReq                      
000082d5  ATT_ReadMultiRsp                      
000080c9  ATT_ReadReq                           
0000829d  ATT_ReadRsp                           
0000804d  ATT_RegisterClient                    
000081f1  ATT_RegisterServer                    
00008991  ATT_SetParamValue                     
00008947  ATT_UpdateMTU                         
00008125  ATT_WriteReq                          
00008315  ATT_WriteRsp                          
10016c29  AddRoundKeySubBytes_Sw                
10018a19  AesCcm_authEncrypt_Sw                 
10018a35  AesCcm_decryptAuth_Sw                 
10018b09  AesCcm_getNumBlocks_Sw                
10018ac5  Aes_decrypt_Sw                        
10018a99  Aes_encrypt_Sw                        
20004f2c  COMMON_RAM_BASE_ADDR                  
10014c01  COMMON_ROM_BASE_ADDR                  
10015a6d  COPY                                  
00018437  CommonROM_Init                        
10017959  ECC_allocWorkzone                     
10017dbd  ECC_keyGen                            
10017961  ECC_setWin                            
10017ded  ECDH_commonKey                        
10017969  ECDSA_sign                            
10017b01  ECDSA_verif                           
10015a11  EXPORTOPERAND                         
20004f78  EXPW                                  
20004f6c  EXPX                                  
20004f70  EXPY                                  
20004f74  EXPZ                                  
10016f58  FFMult2                               
10017058  FFMult3                               
10016d05  FFMult_Sw                             
10018d6c  Fill1                                 
1000d9ec  Fill1_1                               
000096f1  GAP_Authenticate                      
0000982b  GAP_Bond                              
00008fd9  GAP_CentConnRegister                  
00008a65  GAP_CentDevMgrInit                    
000091d3  GAP_ConfigDeviceAddr                  
00008a33  GAP_DeviceDiscoveryCancel             
000089a9  GAP_DeviceDiscoveryRequest            
0001be61  GAP_DeviceInit                        
00009feb  GAP_EndDiscoverable                   
00008eed  GAP_EstablishLinkReq                  
0000a0e1  GAP_GetAdvToken                       
000091cd  GAP_GetIRK                            
00009157  GAP_GetParamValue                     
0000a62b  GAP_Init                              
00009ef1  GAP_MakeDiscoverable                  
0000a709  GAP_NumActiveConnections              
00009169  GAP_ParamsInit                        
000097df  GAP_PasscodeUpdate                    
000097ab  GAP_PasskeyUpdate                     
0000a54f  GAP_PeriConnRegister                  
0000a155  GAP_PeriDevMgrInit                    
000091ab  GAP_PrivacyInit                       
0000a641  GAP_ProcessEvent                      
0000a8e9  GAP_RegisterBondMgrCBs                
0000a625  GAP_RegisterForMsgs                   
0000a0f7  GAP_RemoveAdvToken                    
00009485  GAP_ResolvePrivateAddr                
00009191  GAP_SecParamsInit                     
0000a515  GAP_SendSlaveSecurityRequest          
0000a037  GAP_SetAdvToken                       
0000913d  GAP_SetParamValue                     
000096a9  GAP_Signable                          
0000978d  GAP_TerminateAuth                     
00009535  GAP_TerminateLinkReq                  
0000a141  GAP_UpdateAdvTokens                   
00009f83  GAP_UpdateAdvertisingData             
000095af  GAP_UpdateLinkParamReq                
00009617  GAP_UpdateLinkParamReqReply           
0000cb07  GATTServApp_AddService                
0000cb1d  GATTServApp_DelService                
0000c9ab  GATTServApp_DeregisterService         
0000d7d3  GATTServApp_GetParamValue             
0000ca4d  GATTServApp_GetParameter              
0000c8c9  GATTServApp_Init                      
0001c317  GATTServApp_InitCharCfg               
0000c917  GATTServApp_ProcessEvent              
0000d551  GATTServApp_ReadAttr                  
0001c307  GATTServApp_ReadCharCfg               
0000c8c1  GATTServApp_RegisterForMsg            
0000c955  GATTServApp_RegisterService           
0000d849  GATTServApp_SendCCCUpdatedEvent       
0000d7d1  GATTServApp_SetParamValue             
0000c9ef  GATTServApp_SetParameter              
200043b0  GATTServApp_TaskID                    
0000d7d7  GATTServApp_UpdateCharCfg             
0000d749  GATTServApp_WriteAttr                 
0000c4a7  GATT_AppCompletedMsg                  
0000ba75  GATT_DeregisterService                
0000adf1  GATT_DiscAllCharDescs                 
0000adbb  GATT_DiscAllChars                     
0000acf3  GATT_DiscAllPrimaryServices           
0000adeb  GATT_DiscCharsByUUID                  
0000ad3f  GATT_DiscPrimaryServiceByUUID         
0000acc7  GATT_ExchangeMTU                      
0000bc17  GATT_FindHandle                       
0000bbb9  GATT_FindHandleUUID                   
0000ada1  GATT_FindIncludedServices             
0000bc63  GATT_FindNextAttr                     
0000c781  GATT_FindUUIDRec                      
0000c415  GATT_GetNextHandle                    
0000bdb7  GATT_Indication                       
0000c4cf  GATT_Init                             
0000ac3d  GATT_InitClient                       
0000b971  GATT_InitServer                       
0000be23  GATT_Notification                     
0000c639  GATT_NotifyEvent                      
0000c4ed  GATT_ProcessEvent                     
0000af41  GATT_ReadCharDesc                     
0000ae2d  GATT_ReadCharValue                    
0000af43  GATT_ReadLongCharDesc                 
0000ae35  GATT_ReadLongCharValue                
0000ae37  GATT_ReadMultiCharValues              
0000ae2f  GATT_ReadUsingCharUUID                
0000acbf  GATT_RegisterForInd                   
0000c495  GATT_RegisterForMsgs                  
0000bab5  GATT_RegisterForReq                   
0000b9d9  GATT_RegisterService                  
0000aeb3  GATT_ReliableWrites                   
0000bd03  GATT_SendRsp                          
0000bb47  GATT_ServiceChangedInd                
0000bcf3  GATT_ServiceEncKeySize                
0000bce7  GATT_ServiceNumAttrs                  
0000c49b  GATT_SetHostToAppFlowCtrl             
0000c485  GATT_SetNextHandle                    
0000ae7f  GATT_SignedWriteNoRsp                 
0000c64d  GATT_UpdateMTU                        
0000babd  GATT_VerifyReadPermissions            
0000baf3  GATT_VerifyWritePermissions           
0000af45  GATT_WriteCharDesc                    
0000aeaf  GATT_WriteCharValue                   
0000af47  GATT_WriteLongCharDesc                
0000aeb1  GATT_WriteLongCharValue               
0000ae63  GATT_WriteNoRsp                       
0000c6f5  GATT_bm_alloc                         
0000c76d  GATT_bm_free                          
10015141  GETBIT                                
10015155  GETDIGIT                              
100151a5  GETDIGITL2R                           
0000a9cd  GGS_AddService                        
0000a9e5  GGS_DelService                        
0000a9c9  GGS_GetParamValue                     
0000a991  GGS_GetParameter                      
0000a9f9  GGS_RegisterAppCBs                    
0000a9c7  GGS_SetParamValue                     
0000a911  GGS_SetParameter                      
10008add  HCI_CommandCompleteEvent              
10008ba1  HCI_CommandStatusEvent                
10008a2d  HCI_DataBufferOverflowEvent           
10009525  HCI_DisconnectCmd                     
1000a0f1  HCI_EXT_AdvEventNoticeCmd             
1000a109  HCI_EXT_BuildRevisionCmd              
10009d79  HCI_EXT_ClkDivOnHaltCmd               
00011829  HCI_EXT_ConnEventNoticeCmd            
10009dad  HCI_EXT_DeclareNvUsageCmd             
10009dd1  HCI_EXT_DecryptCmd                    
00011805  HCI_EXT_DelaySleepCmd                 
1000a011  HCI_EXT_DisconnectImmedCmd            
10009f69  HCI_EXT_EnablePTMCmd                  
10009eed  HCI_EXT_EndModemTestCmd               
1000a095  HCI_EXT_ExtendRfRangeCmd              
000115ff  HCI_EXT_GetConnInfoCmd                
1000a0d1  HCI_EXT_HaltDuringRfCmd               
10009ff1  HCI_EXT_MapPmIoPortCmd                
10009ead  HCI_EXT_ModemHopTestTxCmd             
10009ecd  HCI_EXT_ModemTestRxCmd                
10009e8d  HCI_EXT_ModemTestTxCmd                
1000a1b5  HCI_EXT_NumComplPktsLimitCmd          
10009d45  HCI_EXT_OnePktPerEvtCmd               
1000a195  HCI_EXT_OverlappedProcessingCmd       
1000a075  HCI_EXT_PERbyChanCmd                  
1000a031  HCI_EXT_PacketErrorRateCmd            
000117df  HCI_EXT_ResetSystemCmd                
10009fb1  HCI_EXT_SaveFreqTuneCmd               
10009f0d  HCI_EXT_SetBDADDRCmd                  
10009e4d  HCI_EXT_SetFastTxResponseTimeCmd      
10009f81  HCI_EXT_SetFreqTuneCmd                
10009e2d  HCI_EXT_SetLocalSupportedFeaturesCmd  
10009fd1  HCI_EXT_SetMaxDtmTxPowerCmd           
10009cd5  HCI_EXT_SetRxGainCmd                  
10009f49  HCI_EXT_SetSCACmd                     
10009e6d  HCI_EXT_SetSlaveLatencyOverrideCmd    
10009d09  HCI_EXT_SetTxPowerCmd                 
0001721f  HCI_ExtTaskRegister                   
00017207  HCI_GAPTaskRegister                   
10008bf5  HCI_HardwareErrorEvent                
10009631  HCI_HostBufferSizeCmd                 
1000965d  HCI_HostNumCompletedPktCmd            
00017171  HCI_Init                              
0001720f  HCI_L2CAPTaskRegister                 
10009a15  HCI_LE_AddWhiteListCmd                
100099f9  HCI_LE_ClearWhiteListCmd              
000117bd  HCI_LE_ConnUpdateCmd                  
1000999d  HCI_LE_CreateConnCancelCmd            
1000995d  HCI_LE_CreateConnCmd                  
10009af5  HCI_LE_EncryptCmd                     
10009be1  HCI_LE_LtkReqNegReplyCmd              
10009bc5  HCI_LE_LtkReqReplyCmd                 
10009b51  HCI_LE_RandCmd                        
100098f5  HCI_LE_ReadAdvChanTxPowerCmd          
000116bf  HCI_LE_ReadBufSizeCmd                 
10009aa1  HCI_LE_ReadChannelMapCmd              
10009829  HCI_LE_ReadLocalSupportedFeaturesCmd  
00011747  HCI_LE_ReadRemoteUsedFeaturesCmd      
10009c15  HCI_LE_ReadSupportedStatesCmd         
100099c9  HCI_LE_ReadWhiteListSizeCmd           
00011783  HCI_LE_ReceiverTestCmd                
0001171f  HCI_LE_RemoteConnParamReqNegReplyCmd  
000116ed  HCI_LE_RemoteConnParamReqReplyCmd     
10009a31  HCI_LE_RemoveWhiteListCmd             
100098a1  HCI_LE_SetAdvDataCmd                  
100098d9  HCI_LE_SetAdvEnableCmd                
1000986d  HCI_LE_SetAdvParamCmd                 
0001182d  HCI_LE_SetEventMaskCmd                
10009a85  HCI_LE_SetHostChanClassificationCmd   
10009849  HCI_LE_SetRandomAddressCmd            
10009941  HCI_LE_SetScanEnableCmd               
10009915  HCI_LE_SetScanParamCmd                
100098bd  HCI_LE_SetScanRspDataCmd              
10009ba9  HCI_LE_StartEncyptCmd                 
10009c8d  HCI_LE_TestEndCmd                     
00011771  HCI_LE_TransmitterTestCmd             
000110d5  HCI_NumOfCompletedPacketsEvent        
000171b1  HCI_ProcessEvent                      
0001168d  HCI_ReadAuthPayloadTimeoutCmd         
10009765  HCI_ReadBDADDRCmd                     
000115eb  HCI_ReadLocalSupportedCommandsCmd     
1000973d  HCI_ReadLocalSupportedFeaturesCmd     
00011865  HCI_ReadLocalVersionInfoCmd           
10009541  HCI_ReadRemoteVersionInfoCmd          
000118bd  HCI_ReadRssiCmd                       
100095d1  HCI_ReadTransmitPowerLevelCmd         
000115c9  HCI_ResetCmd                          
1000d7cd  HCI_ReverseBytes                      
00017217  HCI_SMPTaskRegister                   
10008c81  HCI_SendCommandCompleteEvent          
10008c59  HCI_SendCommandStatusEvent            
10008d31  HCI_SendControllerToHostEvent         
100094e9  HCI_SendDataPkt                       
100095f5  HCI_SetControllerToHostFlowCtrlCmd    
10009571  HCI_SetEventMaskCmd                   
00011795  HCI_SetEventMaskPage2Cmd              
000171ff  HCI_TestAppTaskRegister               
0001158d  HCI_ValidConnTimeParams               
00011511  HCI_VendorSpecifcCommandCompleteEvent 
000116a5  HCI_WriteAuthPayloadTimeoutCmd        
100094a1  HCI_bm_alloc                          
00018d69  HalFlashGetAddress                    
00018d83  HalFlashRead                          
00018daf  HalFlashWrite                         
000184b7  HalTRNG_GetTRNG                       
00018495  HalTRNG_InitTRNG                      
2000449c  ICall_dispatcher                      
200044a0  ICall_enterCriticalSection            
200044a4  ICall_leaveCriticalSection            
10015a35  IMPORTDATA                            
100159a9  IMPORTLENGTH                          
100159ad  IMPORTMODULUS                         
100159d1  IMPORTOPERAND                         
1001568d  INVERT                                
10016da1  InvAddRoundKey_Sw                     
10016ed5  InvMixColumns_Sw                      
10016dc9  InvRoundKey_Sw                        
10017264  InvSbox                               
10016ea1  InvShiftRows_Sw                       
10016e8d  InvSubBytes_Sw                        
100154f5  JACADD                                
0000df39  L2CAP_BuildCmdReject                  
0000e051  L2CAP_BuildInfoRsp                    
0000e01d  L2CAP_BuildParamUpdateRsp             
0000d919  L2CAP_CmdReject                       
0000d93f  L2CAP_ConnParamUpdateReq              
0000d975  L2CAP_ConnParamUpdateRsp              
0000d9e3  L2CAP_GetMTU                          
0000e345  L2CAP_GetParamValue                   
0000d9c1  L2CAP_HostNumCompletedPkts            
0000d927  L2CAP_InfoReq                         
0000da0d  L2CAP_Init                            
0000e039  L2CAP_ParseInfoReq                    
0000dfe3  L2CAP_ParseParamUpdateReq             
0000da6f  L2CAP_ProcessEvent                    
0000d88d  L2CAP_RegisterApp                     
0000db7d  L2CAP_RegisterFlowCtrlTask            
0000d8b7  L2CAP_SendData                        
0000d9d7  L2CAP_SetBufSize                      
0000d987  L2CAP_SetControllerToHostFlowCtrl     
0000e343  L2CAP_SetParamValue                   
0000da09  L2CAP_SetUserConfig                   
0000e329  L2CAP_bm_alloc                        
20004fe8  LEN                                   
10005739  LL_AddWhiteListDevice                 
10008d81  LL_AdvReportCback                     
000111b7  LL_AuthPayloadTimeoutExpiredCback     
00015c99  LL_ChanMapUpdate                      
10005719  LL_ClearWhiteList                     
1000678d  LL_ConnActive                         
00010fe5  LL_ConnParamUpdateCback               
00015589  LL_ConnUpdate                         
10008ead  LL_ConnectionCompleteCback            
000159ef  LL_CreateConn                         
00015c11  LL_CreateConnCancel                   
100058d5  LL_CtrlToHostFlowControl              
00015439  LL_DirectTestEnd                      
10009471  LL_DirectTestEndDoneCback             
00015355  LL_DirectTestRxTest                   
000151d5  LL_DirectTestTxTest                   
10005a39  LL_Disconnect                         
10009005  LL_DisconnectCback                    
00016c1b  LL_DoorbellErrorCback                 
1000b639  LL_ENC_AES128_Decrypt                 
1000b5f5  LL_ENC_AES128_Encrypt                 
0001340f  LL_ENC_Decrypt                        
1000b851  LL_ENC_DecryptMsg                     
000133a1  LL_ENC_Encrypt                        
1000b721  LL_ENC_EncryptMsg                     
1000b555  LL_ENC_GenDeviceIV                    
1000b541  LL_ENC_GenDeviceSKD                   
1000b569  LL_ENC_GenerateNonce                  
1000b50d  LL_ENC_GeneratePseudoRandNum          
1000b51d  LL_ENC_GenerateTrueRandNum            
1000b4c9  LL_ENC_Init                           
1000b58d  LL_ENC_LoadKey                        
1000b4ed  LL_ENC_ReverseBytes                   
10007025  LL_EXT_AdvEventNotice                 
00015e45  LL_EXT_BuildRevision                  
10006b7d  LL_EXT_ClkDivOnHalt                   
00015df3  LL_EXT_ConnEventNotice                
10006b81  LL_EXT_DeclareNvUsage                 
10006b85  LL_EXT_Decrypt                        
100070a1  LL_EXT_DelaySleep                     
00015e71  LL_EXT_DisconnectImmed                
00015179  LL_EXT_EndModemTest                   
1000701d  LL_EXT_ExtendRfRange                  
1000a2ad  LL_EXT_ExtendRfRangeCback             
00014b39  LL_EXT_GetConnInfo                    
10007021  LL_EXT_HaltDuringRf                   
10006f49  LL_EXT_MapPmIoPort                    
00014fa9  LL_EXT_ModemHopTestTx                 
000150d9  LL_EXT_ModemTestRx                    
00015055  LL_EXT_ModemTestTx                    
00015e23  LL_EXT_NumComplPktsLimit              
10006b59  LL_EXT_OnePacketPerEvent              
10007109  LL_EXT_OverlappedProcessing           
10006fed  LL_EXT_PERbyChan                      
10006f99  LL_EXT_PacketErrorRate                
1000a259  LL_EXT_PacketErrorRateCback           
100070d5  LL_EXT_ResetSystem                    
10006efd  LL_EXT_SaveFreqTune                   
10006e01  LL_EXT_SetBDADDR                      
10006bc5  LL_EXT_SetFastTxResponseTime          
10006ef9  LL_EXT_SetFreqTune                    
00014e47  LL_EXT_SetLocalSupportedFeatures      
00014ea7  LL_EXT_SetMaxDtmTxPower               
10006ad9  LL_EXT_SetRxGain                      
1000a201  LL_EXT_SetRxGainCback                 
10006e85  LL_EXT_SetSCA                         
10006bdd  LL_EXT_SetSlaveLatencyOverride        
00014e7d  LL_EXT_SetTxPower                     
1000a211  LL_EXT_SetTxPowerCback                
1000933d  LL_EncChangeCback                     
100093dd  LL_EncKeyRefreshCback                 
00014daf  LL_EncLtkNegReply                     
00014d59  LL_EncLtkReply                        
1000925d  LL_EncLtkReqCback                     
100057d5  LL_Encrypt                            
000112f9  LL_EnhancedConnectionCompleteCback    
00015d97  LL_GetNumActiveConns                  
00014549  LL_Init                               
00016c2d  LL_LastCmdDoneCback                   
100057b9  LL_NumEmptyWlEntries                  
00016af5  LL_PM_Enter_AES                       
00016b0b  LL_PM_Exit_AES                        
00016af1  LL_PM_GetRfCoreState                  
00016b35  LL_PM_PowerOffRfCore                  
00014891  LL_ProcessEvent                       
10005801  LL_PseudoRand                         
1000556d  LL_RX_bm_alloc                        
100057f5  LL_Rand                               
1000a1d5  LL_RandCback                          
10006105  LL_ReadAdvChanTxPower                 
00014be9  LL_ReadAuthPayloadTimeout             
100056c9  LL_ReadBDADDR                         
100059a1  LL_ReadChanMap                        
10005879  LL_ReadLocalSupportedFeatures         
1000589d  LL_ReadLocalVersionInfo               
00014deb  LL_ReadRemoteUsedFeatures             
00011069  LL_ReadRemoteUsedFeaturesCompleteCback
100058e9  LL_ReadRemoteVersionInfo              
100091e1  LL_ReadRemoteVersionInfoCback         
00015da3  LL_ReadRssi                           
00015d3b  LL_ReadSupportedStates                
00014ebf  LL_ReadTxPowerLevel                   
100057a1  LL_ReadWlSize                         
0001122b  LL_RemoteConnParamReqCback            
00015535  LL_RemoteConnParamReqNegReply         
000154b1  LL_RemoteConnParamReqReply            
10005765  LL_RemoveWhiteListDevice              
00014a25  LL_Reset                              
00010ef1  LL_RxDataCompleteCback                
00016f67  LL_RxEntryDoneCback                   
00016f65  LL_RxIgnoredCback                     
00015791  LL_SetAdvControl                      
10005f89  LL_SetAdvData                         
00015689  LL_SetAdvParam                        
100056e9  LL_SetRandomAddress                   
00015921  LL_SetScanControl                     
00015897  LL_SetScanParam                       
1000612d  LL_SetScanRspData                     
00014c77  LL_StartEncrypt                       
10005549  LL_TX_bm_alloc                        
20004c84  LL_TaskID                             
00014efb  LL_TxData                             
00016f37  LL_TxDoneCback                        
00016f4b  LL_TxEntryDoneCback                   
00014c09  LL_WriteAuthPayloadTimeout            
100158ac  LUTC                                  
100158dc  LUTINCI                               
100158f4  LUTJ                                  
1001588c  LUTOPCODE                             
10015894  LUTOPSIGN                             
100158c4  LUTSE                                 
1001596c  LUTSTATE                              
20004fe4  MOD                                   
20004fd8  MSBMOD                                
10016c79  MixColumns_Sw                         
10018b9c  NIST256_Gx                            
10018bc0  NIST256_Gy                            
10018b54  NIST256_a                             
10018b78  NIST256_b                             
10018b0c  NIST256_p                             
10018b30  NIST256_r                             
00017fe3  NOROM_CPUcpsid                        
00017fd7  NOROM_CPUcpsie                        
0001800d  NOROM_FlashProgram                    
00017ff1  NOROM_FlashSectorErase                
00018099  NOROM_IntDisable                      
00018029  NOROM_IntEnable                       
000180f5  NOROM_TRNGConfigure                   
00018129  NOROM_VIMSModeGet                     
0001bf1d  NPI_GetMaxRxBufSize                   
0001bf19  NPI_ReadTransport                     
0001bec5  NPI_RegisterTask                      
0001bf15  NPI_RxBufLen                          
0001becb  NPI_WriteTransport                    
000193ed  NVOCOP_initNV                         
0001937b  NVOCOP_readItem                       
000192c1  NVOCOP_writeItem                      
0001e000  NV_FLASH                              
200048d8  OSAL_timeSeconds                      
00018535  Onboard_rand                          
00018531  Onboard_soft_reset                    
10014c04  P1_ro                                 
10005004  P1_ro_1                               
10019ffe  P1_ro_2                               
1000dffe  P1_ro_2_1                             
20004f40  P2_rw                                 
20004f40  P2_s0                                 
20004fac  P2_zi                                 
200048fc  P2_zi_1                               
0001c83c  R2F_Flash_JT                          
0001c824  R2F_Flash_JT_CommonROM                
0001c9d8  R2R_Flash_JT                          
0001c8e4  R2R_Flash_JT_CommonROM                
200048e8  RAM_BASE_ADDR                         
10017158  RCon                                  
00010e53  RFHAL_AddTxDataEntry                  
100184f9  RFHAL_AllocDataEntry                  
100184a9  RFHAL_AllocDataEntryQueue             
10018315  RFHAL_AllocRatChan                    
100185e1  RFHAL_BuildDataEntryRingBuffer        
10018669  RFHAL_BuildLinkedBuffer               
10018551  RFHAL_BuildRingBuffer                 
10018549  RFHAL_FreeDataEntry                   
100184c5  RFHAL_FreeDataEntryQueue              
10018485  RFHAL_FreeNextTxDataEntry             
1001833d  RFHAL_FreeRatChan                     
100184cd  RFHAL_GetNextDataEntry                
100184d1  RFHAL_GetTempDataEntry                
100183b9  RFHAL_InitDataQueue                   
00010def  RFHAL_InitRfHal                       
10018369  RFHAL_MapRatChansToInt                
100184d5  RFHAL_NextDataEntryDone               
100183c5  RFHAL_QueueRFDataEntries              
10018391  RFHAL_RegisterRatChanCallback         
10005001  ROM_BASE_ADDR                         
00018457  ROM_Init                              
00018401  ROM_Spinlock                          
10016b79  RoundKey_Sw                           
10015101  SAVEPOINT                             
1000d964  SCA                                   
20004f68  SCAL                                  
100150e5  SCALARMUL                             
10014ced  SCALARMUL_core                        
10015019  SCALARMUL_final                       
10014c05  SCALARMUL_init                        
10015a51  SETOPERAND                            
10015a91  SETWORD                               
10018089  SHA256_final                          
10018129  SHA256_full                           
10017ffd  SHA256_init                           
10017ef1  SHA256_nextState                      
10018019  SHA256_process                        
10017e75  SHA256_round                          
10017f49  SHA256_saveBuffer                     
10017e39  SHA256_updateW                        
UNDEFED   SHT$$INIT_ARRAY$$Base                 
UNDEFED   SHT$$INIT_ARRAY$$Limit                
0000ebbd  SM_CalcRandomAddr                     
0000ec4b  SM_Encrypt                            
0000eee5  SM_GenerateAuthenSig                  
0000ffb1  SM_Init                               
0000e635  SM_InitiatorInit                      
0000f2eb  SM_PasskeyUpdate                      
0000ffcd  SM_ProcessEvent                       
0000ebf5  SM_ResolveRandomAddrs                 
0000fa41  SM_ResponderInit                      
0000e687  SM_StartEncryption                    
0000f25d  SM_StartPairing                       
0000ef7f  SM_VerifyAuthenSig                    
10015821  SQUAREMULTIPLYWORD                    
10017895  SSP_CCM_Auth_Encrypt_Sw               
10017365  SSP_CCM_Auth_Sw                       
1001767d  SSP_CCM_Decrypt_Sw                    
100174fd  SSP_CCM_Encrypt_Sw                    
100178f5  SSP_CCM_InvAuth_Decrypt_Sw            
10017839  SSP_CCM_InvAuth_Sw                    
10017771  SSP_CTR_Decrypt_Sw                    
100175ed  SSP_CTR_Encrypt_Sw                    
10017164  Sbox                                  
10015215  SelectReg                             
10016c45  ShiftRows_Sw                          
200046bc  SysBootMsg                            
20004f88  TMP1                                  
20004f8c  TMP2                                  
20004f90  TMP3                                  
20004f94  TMP4                                  
20004f98  TMP5                                  
20004f9c  TMP6                                  
1000d2d9  WL_AddEntry                           
00016b37  WL_Clear                              
1000d1f5  WL_ClearEntry                         
00016bc7  WL_ClearIgnoreList                    
00016b65  WL_FindEntry                          
00016b5b  WL_GetNumFreeEntries                  
1000d229  WL_GetSize                            
1000d189  WL_Init                               
1000d36d  WL_RemoveEntry                        
00016ba7  WL_SetWlIgnore                        
10015a85  ZERO                                  
0001d1e4  __TI_CINIT_Base                       
0001d1f4  __TI_CINIT_Limit                      
0001d1d8  __TI_Handler_Table_Base               
0001d1e4  __TI_Handler_Table_Limit              
00017c49  __TI_auto_init                        
0001c2d5  __TI_decompress_none                  
0001c2cf  __TI_decompress_rle24                 
00008000  __TI_static_base__                    
0001c259  __TI_zero_init                        
00017cb5  __aeabi_lmul                          
00017d69  __aeabi_memclr                        
00017d69  __aeabi_memclr4                       
00017d69  __aeabi_memclr8                       
00017ccd  __aeabi_memcpy                        
00017ccd  __aeabi_memcpy4                       
00017ccd  __aeabi_memcpy8                       
00017d6b  __aeabi_memset                        
00017d6b  __aeabi_memset4                       
00017d6b  __aeabi_memset8                       
00017de3  __aeabi_uldivmod                      
ffffffff  __binit__                             
ffffffff  __c_args__                            
1000dffe  __checksum                            
10019ffe  __checksum_CommonROM                  
10005000  __checksum_begin                      
10014c00  __checksum_begin_CommonROM            
1000dffd  __checksum_end                        
10019ffd  __checksum_end_CommonROM              
00005721  __checksum_value                      
0000e0ea  __checksum_value_CommonROM            
10018ced  __exit                                
200046b8  activeConns                           
1000d9b0  advChan                               
20004c24  advCmd                                
20004bdc  advDataEntry                          
20004c14  advDataQueue                          
1000d9b4  advEvt2Cmd                            
1000d9c0  advEvt2State                          
200049ec  advInfo                               
20004698  advInfoExt                            
20004e98  advOutput                             
20004d58  advParam                              
20004458  advPkt                                
0001cf18  advPktSuffix                          
00018533  appForceBoot                          
20004626  appTaskID                             
0000c8a0  appearanceUUID                        
20004798  assertSubcause                        
0000880b  attSendMsg                            
20004fdc  aux64                                 
20004858  baseTaskID                            
ffffffff  binit                                 
0001bdd5  bleDispatch_BMAlloc                   
0001be01  bleDispatch_BMFree                    
0001be19  bleDispatch_Init                      
0001bd03  bleDispatch_ProcessEvent              
200047a0  bleDispatch_TaskID                    
20004f08  bleEvtMask                            
00008998  btBaseUUID                            
20004c98  buildInfo                             
20004ee8  cachedTRNGdata                        
2000485c  cbTimers                              
20004ca8  chanMapUpdate                         
0000c898  charAggFormatUUID                     
0000c884  charExtPropsUUID                      
0000c894  charFormatUUID                        
0000c888  charUserDescUUID                      
0000c880  characterUUID                         
0000c88c  clientCharCfgUUID                     
20004388  clientInfoTbl                         
20004e70  connOutput                            
20004dc8  connReqData                           
0000f24c  const_Rb                              
0001c20d  copy_in                               
20004f24  ctrlToHostEnable                      
20004cb9  curTxPowerVal                         
20004fa0  data_Gx                               
20004fa4  data_Gy                               
20004f50  data_a                                
20004fa8  data_b                                
20004f48  data_p                                
20004f4c  data_r                                
20004ed0  deviceFeatureSet                      
0000c89c  deviceNameUUID                        
20004edc  dtmInfo                               
0000c8b8  extReportRefUUID                      
20004cbb  fastTxRespTime                        
20004fcc  fwInfoCmd                             
00009357  gapAddAddrAdj                         
200044e4  gapAppTaskID                          
200044e7  gapAutoAdvPrivateAddrChange           
00009047  gapCancelLinkReq                      
00008fe9  gapCentProcessConnEvt                 
000090c9  gapCentProcessConnUpdateCmdStatus     
000090db  gapCentProcessConnUpdateCompleteEvt   
000090ef  gapCentProcessSignalEvt               
00009509  gapClrState                           
200044e6  gapDeviceAddrMode                     
000094ab  gapFindADType                         
00008c7f  gapFindEmptyScanRec                   
00008ca7  gapFindScanRec                        
00009c69  gapFreeEstLink                        
00009413  gapGetDevAddress                      
0000940d  gapGetDevAddressMode                  
000093e5  gapGetSRK                             
000093eb  gapGetSignCounter                     
0000937b  gapHost2CtrlOwnAddrType               
000093f3  gapIncSignCounter                     
00009489  gapIsAdvertising                      
0000948d  gapIsScanning                         
00009d99  gapPairingCompleteCB                  
00009d31  gapPasskeyNeededCB                    
200044e8  gapPrivateAddrChangeTimeout           
00009935  gapProcessConnectionCompleteEvt       
00009079  gapProcessCreateLLConnCmdStatus       
00009a0f  gapProcessDisconnectCompleteEvt       
00009329  gapProcessNewAddr                     
00009385  gapProcessRandomAddrComplete          
000099e3  gapProcessRemoteConnParamReqEvt       
200044e5  gapProfileRole                        
000092a9  gapReadBD_ADDRStatus                  
000092e5  gapReadBufSizeCmdStatus               
0000a8dd  gapRegisterCentral                    
00009ec9  gapRegisterCentralConn                
0000a8e3  gapRegisterPeripheral                 
00009ecf  gapRegisterPeripheralConn             
00009c85  gapSendBondCompleteEvent              
00009af5  gapSendLinkUpdateEvent                
00009cd7  gapSendPairingReqEvent                
000098f3  gapSendSlaveSecurityReqEvent          
0000ac30  gapServiceCBs                         
0000c86c  gapServiceUUID                        
000094ff  gapSetState                           
20004378  gapState                              
20004580  gapTaskID                             
000090c5  gapTerminateConnComplete              
20004581  gapUnwantedTaskID                     
000098a1  gapUpdateConnSignCounter              
00009497  gapValidADType                        
20004625  gattAppTaskID                         
0000c6a1  gattGetPayload                        
0000c5bb  gattNotifyEvent                       
20004379  gattNumConns                          
0000c48f  gattRegisterClient                    
0000c489  gattRegisterServer                    
0000c673  gattSendFlowCtrlEvt                   
0000c870  gattServiceUUID                       
0000c611  gattStartTimer                        
0000c621  gattStopTimer                         
2000437a  gattTaskID                            
2000479c  halAssertCback                        
000184fd  halAssertHandler                      
00018501  halAssertHandlerExt                   
00018517  halAssertInit                         
000184ff  halAssertSpinlock                     
0001cf64  hciCmdTable                           
00017655  hciDisconnect                         
00017bab  hciExtBuildRevision                   
00017b39  hciExtClkDivOnHalt                    
00017b45  hciExtDeclareNvUsage                  
00017b51  hciExtDecrypt                         
00017bc3  hciExtDelaySleep                      
00017ad9  hciExtDisconnectImmed                 
00017c27  hciExtEnablePTM                       
00017c11  hciExtEndModemTest                    
00017aa9  hciExtExtendRfRange                   
00017b1d  hciExtGetConnInfo                     
00017ab3  hciExtHaltDuringRf                    
00017acb  hciExtMapPmIoPort                     
00017bfb  hciExtModemHopTestTx                  
00017bed  hciExtModemTestTx                     
00017c05  hciExtModemtestRx                     
00017b0f  hciExtNumComplPktsLimit               
00017b2d  hciExtOnePktPerEvt                    
00017b03  hciExtOverlappedProcessing            
00017aed  hciExtPER                             
00017bd7  hciExtResetSystem                     
00017c3d  hciExtSaveFreqTune                    
00017c1b  hciExtSetBDADDR                       
00017b7f  hciExtSetFastTxResponseTime           
00017c31  hciExtSetFreqTune                     
00017b73  hciExtSetLocalSupportedFeatures       
00017abf  hciExtSetMaxDtmTxPower                
00017a91  hciExtSetRxGain                       
00017b97  hciExtSetSCA                          
00017b8b  hciExtSetSlaveLatencyOverride         
00017a9d  hciExtSetTxPower                      
200047a4  hciExtSignCounter                     
20004486  hciExtTaskID                          
20004483  hciGapTaskID                          
000176c3  hciHostBufferSize                     
000176f1  hciHostNumCompletedPkt                
00010f99  hciInitEventMasks                     
20004484  hciL2capTaskID                        
000178cf  hciLEAddWhiteList                     
000178c5  hciLEClearWhiteList                   
000178eb  hciLEConnUpdate                       
00017839  hciLECreateConn                       
000178b1  hciLECreateConnCancel                 
0001797b  hciLEEncrypt                          
000179db  hciLELtkReqNegReply                   
000179c5  hciLELtkReqReply                      
0001799d  hciLERand                             
000177f5  hciLEReadAdvChanTxPower               
00017775  hciLEReadBufSize                      
00017953  hciLEReadChanMap                      
0001777f  hciLEReadLocalSupportedFeatures       
00017967  hciLEReadRemoteUsedFeatures           
000179ef  hciLEReadSupportedStates              
000178bb  hciLEReadWhiteListSize                
000179f9  hciLEReceiverTest                     
00017a7b  hciLERemoteConnParamReqNegReply       
00017a1f  hciLERemoteConnParamReqReply          
000178dd  hciLERemoveWhiteList                  
000177cd  hciLESetAdvData                       
000177e9  hciLESetAdvEnab                       
00017795  hciLESetAdvParam                      
00017769  hciLESetEventMask                     
00017947  hciLESetHostChanClass                 
00017789  hciLESetRandomAddr                    
0001782b  hciLESetScanEnable                    
000177ff  hciLESetScanParam                     
000177db  hciLESetScanRspData                   
000179a7  hciLEStartEncrypt                     
00017a15  hciLETestEnd                          
00017a05  hciLETransmitterTest                  
20004f28  hciPTMenabled                         
0001759f  hciProcessCtrlToHost                  
000174e3  hciProcessHostToCtrlCmd               
00017575  hciProcessHostToCtrlData              
00017701  hciReadAuthPayloadTimeout             
00017be3  hciReadBDADDR                         
00017741  hciReadLocalSupportedCommands         
0001774b  hciReadLocalSupportedFeatures         
00017737  hciReadLocalVersionInfo               
0001766b  hciReadRemoteVersionInfo              
00017755  hciReadRssi                           
000176a1  hciReadTransmitPowerLevel             
00017697  hciReset                              
00017227  hciSerialPacketParser                 
000176b7  hciSetControllerToHostFlowCtrl        
0001767f  hciSetEventMask                       
0001768b  hciSetEventMaskPage2                  
20004485  hciSmpTaskID                          
200043f3  hciTaskID                             
20004482  hciTestTaskID                         
00017717  hciWriteAuthPayloadTimeout            
20004f58  inPointX                              
20004f5c  inPointY                              
20004f54  inScalar                              
0000c87c  includeUUID                           
2000458f  indTaskId                             
20004db0  initCmd                               
20004b94  initDataEntry                         
20004bcc  initDataQueue                         
20004e58  initInfo                              
20004eb8  initOutput                            
20004cf0  initParam                             
0001cf20  initPktSuffix                         
0000e189  l2capAllocConnChannel                 
0000e029  l2capBuildInfoReq                     
0000dfb7  l2capBuildParamUpdateReq              
20004644  l2capChannels                         
0000e285  l2capDisconnectAllChannels            
0000de39  l2capEncapSendData                    
0000e1e9  l2capFindLocalId                      
200043c0  l2capFixedChannels                    
0000e1db  l2capFreeChannel                      
0000e283  l2capHandleRxError                    
200043f0  l2capId                               
20004648  l2capMtuSize                          
0000e0f7  l2capNotifyData                       
0000e13b  l2capNotifySignal                     
20004641  l2capNumChannels                      
20004642  l2capNumDataPkts                      
0000df77  l2capParseCmdReject                   
0000e097  l2capParseInfoRsp                     
0000dee3  l2capParsePacket                      
0000e01f  l2capParseParamUpdateRsp              
0000dcbd  l2capParseSignalHdr                   
0000dd35  l2capSendCmd                          
0000ddcb  l2capSendPkt                          
0000dcd1  l2capSendReq                          
0000e213  l2capStartTimer                       
0000e227  l2capStopTimer                        
0000dda5  l2capStoreFCPkt                       
20004640  l2capTaskID                           
20004799  legacyMode                            
20004438  linkCmd                               
200043f4  linkDBNumConns                        
0000e3b5  linkDB_Add                            
0000e597  linkDB_Authen                         
0000e4b7  linkDB_Find                           
0000e4e1  linkDB_FindFirst                      
0000e477  linkDB_GetInfo                        
0000e349  linkDB_Init                           
0000e58b  linkDB_MTU                            
0000e541  linkDB_NumActive                      
0000e569  linkDB_NumConns                       
0000e5e3  linkDB_PerformFunc                    
0000e397  linkDB_Register                       
0000e41b  linkDB_Remove                         
0000e535  linkDB_Role                           
0000e513  linkDB_State                          
0000e44f  linkDB_Update                         
0000e56f  linkDB_UpdateMTU                      
0000e60f  linkDB_reportStatusChange             
2000443c  linkParam                             
000160af  llActiveTask                          
1000cd51  llAdv_TaskAbort                       
00011a9f  llAdv_TaskConnect                     
000119d3  llAdv_TaskEnd                         
00012bef  llAlignToNextEvent                    
00011f3b  llAllocConnId                         
00016033  llAllocTask                           
100082f1  llAtLeastTwoChans                     
00012ca9  llCBTimer_AptoExpiredCback            
1000d94d  llCalcScaFactor                       
1000c1b5  llCheckForLstoDuringSL                
00010d49  llCheckRxBuffers                      
00012e25  llCheckWhiteListUsage                 
100072e9  llClearRfInts                         
00012abf  llCombinePDU                          
0001cf30  llConfigTable                         
0001248d  llConnCleanup                         
00012f3d  llConnExists                          
10008631  llConnTerminate                       
200046b0  llConnectionExt                       
20004cb0  llConns                               
10008741  llConvertCtrlProcTimeoutToEvent       
10008721  llConvertLstoToEvent                  
00010d1b  llCreateRxBuffer                      
10008985  llDataQEmpty                          
10008965  llDataQFull                           
00012575  llDequeueCtrlPkt                      
10008921  llDequeueDataQ                        
00011971  llDirAdv_TaskEnd                      
100072e5  llDisableRfInts                       
100072ed  llEnableRfInts                        
100080bd  llEnqueueCtrlPkt                      
10008889  llEnqueueDataQ                        
100088b5  llEnqueueHeadDataQ                    
1000d795  llEqAlreadyValidAddr                  
1000d6e5  llEqSynchWord                         
1000d709  llEqualBytes                          
10008719  llEventDelta                          
100086f1  llEventInRange                        
1000a939  llFindNextSecTask                     
1000a895  llFindStartType                       
00012a5d  llFragmentPDU                         
1000abed  llFreeTask                            
100086b9  llGenerateCRC                         
1000d695  llGenerateValidAccessAddr             
1000aca9  llGetActiveTasks                      
1000d4ad  llGetAdvChanPDU                       
1000ac3d  llGetCurrentTask                      
00015f0b  llGetCurrentTime                      
000129f3  llGetMinCI                            
00012825  llGetNextConn                         
00012ea9  llGetNextDataChan                     
1000ace1  llGetNumTasks                         
1000b009  llGetNumTxDataEntries                 
000160e5  llGetTask                             
0001608d  llGetTaskState                        
00012e09  llGetTxPower                          
1000d6b1  llGtSixConsecZerosOrOnes              
1000d731  llGtTwentyFourTransitions             
000131a7  llHaltRadio                           
00013247  llHardwareError                       
000120c7  llInitFeatureSet                      
00015f09  llInitRAT                             
000134c1  llInit_TaskConnect                    
00013773  llInit_TaskEnd                        
1000d761  llLtTwoChangesInLastSixBits           
000137e9  llMaster_TaskEnd                      
100089f1  llMemCopyDst                          
100089d9  llMemCopySrc                          
1000afa1  llMoveTempTxDataEntries               
00013173  llOctets2Time                         
1000d6f5  llOneBitSynchWordDiffer               
1000adb1  llPatchCM0                            
10008665  llPendingUpdateParam                  
00012e69  llProcessChanMap                      
0001085d  llProcessMasterControlPacket          
00013a8d  llProcessMasterControlProcedures      
100072f1  llProcessPostRfOps                    
00015f51  llProcessScanRxFIFO                   
00010435  llProcessSlaveControlPacket           
00016705  llProcessSlaveControlProcedures       
00012423  llProcessTxData                       
00010ded  llRatChanCBack_A                      
1000ae41  llRatChanCBack_B                      
1000ae45  llRatChanCBack_C                      
1000ae49  llRatChanCBack_D                      
00012647  llRealignConn                         
10008461  llReleaseAllConnId                    
10008429  llReleaseConnId                       
000125b3  llReplaceCtrlPkt                      
00010d6f  llReplaceRxBuffers                    
00013245  llResetRadio                          
00012d4b  llRfInit                              
00012d03  llRfSetup                             
000131cd  llRfStartFS                           
00015f19  llScan_TaskEnd                        
00016115  llScheduleTask                        
1000a335  llScheduler                           
00016001  llSchedulerInit                       
00013015  llSendReject                          
100072e1  llSetFreqTune                         
00012ef5  llSetNextDataChan                     
00012db9  llSetTxPower                          
100073e5  llSetupAdv                            
1000aeb1  llSetupAdvDataEntryQueue              
0001324b  llSetupConn                           
00012283  llSetupConnParamReq                   
000122c7  llSetupConnParamRsp                   
00010c95  llSetupConnRxDataEntryQueue           
10007aed  llSetupEncReq                         
10007b95  llSetupEncRsp                         
000120df  llSetupFeatureSetReq                  
0001212d  llSetupFeatureSetRsp                  
100077b5  llSetupInit                           
1000ae95  llSetupInitDataEntryQueue             
00013963  llSetupNextMasterEvent                
000163cf  llSetupNextSlaveEvent                 
10007cfd  llSetupPauseEncReq                    
10007d55  llSetupPauseEncRsp                    
00012185  llSetupPingReq                        
000121b7  llSetupPingRsp                        
00010dbb  llSetupRATChanCompare                 
10007df5  llSetupRejectInd                      
00012373  llSetupRejectIndExt                   
00010da1  llSetupRfHal                          
100075fd  llSetupScan                           
1000ae4d  llSetupScanDataEntryQueue             
000123e3  llSetupStartEncReq                    
10007ca9  llSetupStartEncRsp                    
00013061  llSetupTermInd                        
10008069  llSetupUnknownRsp                     
00012207  llSetupUpdateChanReq                  
100079c9  llSetupUpdateParamReq                 
10007f29  llSetupVersionIndReq                  
000161a9  llSlave_TaskEnd                       
000125d9  llSortActiveConns                     
20004cb8  llState                               
1000d9e1  llTaskError                           
20004ef4  llTaskList                            
00013145  llTime2Octets                         
1000d8c9  llTimeCompare                         
1000d8f5  llTimeDelta                           
20004674  llUserConfig                          
0001192d  llValidAccessAddr                     
00013289  llValidateConnParams                  
00011eb9  llVerifyConnParamReqParams            
000130c9  llWriteTxData                         
0001cf60  ll_buildRevision                      
10016551  mADD                                  
10015bd5  mINVK                                 
10015f81  mMULT                                 
10016749  mOUT                                  
10015a9d  mSET                                  
1001664d  mSUB                                  
20004cbc  maxNumConns                           
2000469e  maxNumTxDataBufs                      
2000469c  maxPduSize                            
0001cf28  maxPktsPerEvt                         
20004c85  maxTxPwrForDTM                        
00019439  memcmp                                
00017ccd  memcpy                                
00017d71  memset                                
20004f14  mstCmd                                
20004f18  mstParam                              
200043f2  nextConnId                            
20004cba  numComplPkts                          
20004c88  numComplPktsFlush                     
20004c87  numComplPktsLimit                     
20004f26  numHostBufs                           
20004c8b  numTxDataBufs                         
20004c86  onePktPerEvt                          
00018153  osalAddTimer                          
0001c001  osalAdjustTimer                       
00018197  osalDeleteTimer                       
00018139  osalFindTimer                         
0001c135  osalInitTasks                         
000183af  osalTimerInit                         
000181e1  osalTimerUpdate                       
00018e4b  osal_CbTimerInit                      
00018dc1  osal_CbTimerProcessEvent              
00018f9b  osal_CbTimerStart                     
00018ec3  osal_CbTimerStop                      
00018e63  osal_CbTimerUpdate                    
00018565  osal_bm_adjust_header                 
0001858d  osal_bm_alloc                         
000185bf  osal_bm_free                          
00018d31  osal_buffer_uint32                    
00018cff  osal_build_uint32                     
00018921  osal_clear_event                      
00018a27  osal_enroll_dispatchid                
00018a33  osal_enroll_senderid                  
20004831  osal_entity                           
2000483c  osal_eventloop_hook                   
0001819f  osal_get_timeoutEx                    
00018a75  osal_init_system                      
00018745  osal_isbufset                         
20004494  osal_last_timestamp                   
20004848  osal_max_msecs                        
0001c053  osal_mem_alloc                        
0001c057  osal_mem_free                         
00018725  osal_memcmp                           
00018619  osal_memcpy                           
00018ce3  osal_memdup                           
00018615  osal_memset                           
00018631  osal_msg_allocate                     
0001865b  osal_msg_deallocate                   
0001875f  osal_msg_enqueue                      
00018691  osal_msg_extract                      
0001878f  osal_msg_push                         
00018cdd  osal_msg_push_front                   
000186c5  osal_msg_receive                      
00018807  osal_msg_send                         
000183bf  osal_next_timeout                     
0001bfb3  osal_pwrmgr_init                      
0001bf49  osal_pwrmgr_task_state                
20004838  osal_qHead                            
00018535  osal_rand                             
00018cc1  osal_revmemcpy                        
00018b79  osal_run_system                       
00018655  osal_self                             
20004840  osal_semaphore                        
000189e1  osal_service_entry                    
0001888d  osal_set_event                        
00019429  osal_snv_init                         
000193a3  osal_snv_read                         
0001935d  osal_snv_write                        
00018379  osal_start_reload_timer               
00018c97  osal_start_system                     
0001830f  osal_start_timerEx                    
00018349  osal_stop_timerEx                     
00018cb3  osal_strlen                           
20004844  osal_tickperiod                       
000182c3  osal_timer_refTimeUpdate              
20004f60  outPointX                             
20004f64  outPointY                             
20004c6c  ownPublicAddr                         
20004c74  ownRandomAddr                         
20004c7c  ownSavedPublicAddr                    
20004558  pAuthLink                             
20004440  pBleEvtMask                           
20004554  pEstLink                              
20004374  pGapAdvertState                       
20004370  pGapDiscReq                           
20004f00  pHciEvtMask                           
20004448  pHciEvtMask2                          
2000442c  pPairingParams                        
20004ffc  pSspAesEncrypt_Sw                     
20004c9c  peerInfo                              
0000c8ac  periConnParamUUID                     
0000c8a4  periPrivacyFlagUUID                   
20004380  pfnBondMgrCBs                         
2000455c  pfnCentralConnCBs                     
20004584  pfnPeripheralCBs                      
2000437c  pfnPeripheralConnCBs                  
20004430  pfnResponderCBs                       
20004cbe  postRfOperations                      
0000c874  primaryServiceUUID                    
200048de  pwrmgr_attribute                      
200048dc  pwrmgr_initialized                    
20004fac  ratChanInfo                           
0000c8a8  reconnectAddrUUID                     
0000c8bc  reportRefUUID                         
20004624  reqTaskId                             
00016bf1  rfCallback                            
20004c94  rfCfgAdiVal                           
0001cf10  rfCfgVal                              
200046a4  rfCmdHandle                           
200046ac  rfDrvTblPtr                           
20004450  rfEvent                               
2000469d  rfFeModeBias                          
200046a8  rfHandle                              
200046c4  rfMode                                
20004700  rfObject                              
0001cf2c  rfOpLoc                               
00016be5  rfPUpCallback                         
200046d4  rfParams                              
200046e8  rfSetup                               
1000dffc  romRev                                
200047f8  rspBuf                                
20004cc0  rssiCorrection                        
20004f0c  rxDataQ                               
20004c8a  rxFifoFlowCtrl                        
20004e40  rxModemTestCmd                        
0001cf14  rxPktSuffix                           
20004f10  rxRingBuf                             
20004ec4  rxTestOut                             
20004e84  rxTestParam                           
20004df8  scanCmd                               
200048fc  scanDataEntry                         
200049dc  scanDataQueue                         
20004d94  scanInfo                              
200046a0  scanInfoExt                           
20004e10  scanOutput                            
20004d14  scanParam                             
0001cf1c  scanPktSuffix                         
200046c0  sclkSrc                               
0000c878  secondaryServiceUUID                  
00009a71  sendEstLinkEvent                      
0000c890  servCharCfgUUID                       
2000438c  serverInfoTbl                         
0000c8b0  serviceChangedUUID                    
0001c079  setBleUserConfig                      
20004c89  slOverride                            
20004550  slaveConnHandle                       
20004548  slaveUpdateReq                        
20004c96  sleepDelay                            
20004de0  slvCmd                                
20004d38  slvParam                              
0000ee6f  smAuthReqToUint8                      
0000f969  smDetermineKeySize                    
0000e64f  smEncLTK                              
0000f939  smEndPairing                          
0000f6ab  smGenerateConfirm                     
0000f67f  smGeneratePairingReqRsp               
0000ee45  smGenerateRandBuf                     
0000f6c3  smGenerateRandMsg                     
0000f379  smLinkCheck                           
0000f541  smNextPairingState                    
0000f88d  smPairingSendEncInfo                  
0000f8c5  smPairingSendIdentityAddrInfo         
0000f8bb  smPairingSendIdentityInfo             
0000f893  smPairingSendMasterID                 
0000f8e9  smPairingSendSigningInfo              
0000f3a1  smProcessDataMsg                      
0000f491  smProcessEncryptChange                
0000f60f  smProcessPairingReq                   
0000f369  smRegisterInitiator                   
0000f371  smRegisterResponder                   
0000f6ed  smSavePairInfo                        
0000f475  smSendFailAndEnd                      
0000f9f9  smSendFailureEvt                      
000103eb  smSendSMMsg                           
0000f665  smStartEncryption                     
0000ec89  smStartRspTimer                       
0000eca5  smStopRspTimer                        
200043f1  smTaskID                              
0000f39b  smTimedOut                            
0000ee9d  smUint8ToAuthReq                      
0000f571  sm_c1                                 
0000ed37  sm_c1new                              
0000ecb5  sm_d1                                 
0000ed0d  sm_dm                                 
0000ee05  sm_s1                                 
000102b9  smpBuildEncInfo                       
0001033b  smpBuildIdentityAddrInfo              
00010329  smpBuildIdentityInfo                  
000102e1  smpBuildMasterID                      
00010223  smpBuildPairingConfirm                
00010283  smpBuildPairingFailed                 
0001024b  smpBuildPairingRandom                 
00010099  smpBuildPairingReq                    
000100a7  smpBuildPairingReqRsp                 
000100a1  smpBuildPairingRsp                    
000103b3  smpBuildSecurityReq                   
0001038b  smpBuildSigningInfo                   
000102cb  smpParseEncInfo                       
0001036f  smpParseIdentityAddrInfo              
00010359  smpParseIdentityInfo                  
00010305  smpParseMasterID                      
00010235  smpParsePairingConfirm                
0001029b  smpParsePairingFailed                 
0001026d  smpParsePairingRandom                 
0001014f  smpParsePairingReq                    
000103cf  smpParseSecurityReq                   
0001039d  smpParseSigningInfo                   
10016d29  sspAesDecrypt_Sw                      
10016af5  sspAesEncryptBasic_Sw                 
10016a99  sspAesEncryptKeyExp_Sw                
10016979  sspAesEncrypt_Sw                      
10016985  sspKeyExpansion_Sw                    
10016975  ssp_KeyInit_Sw                        
0001c1ab  stack_main                            
00008001  startup_entry                         
0001c1f9  strlen                                
000118e8  supportedCmdsTable                    
20004cc4  taskEndAction                         
20004f0a  taskEndStatus                         
0001c800  tasksArr                              
200044ac  tasksEvents                           
20004490  timerHead                             
200046b4  trngDrvTblPtr                         
20004e28  trxTestCmd                            
20004f1c  txDataQ                               
20004d78  txModemTestCmd                        
0001cf04  txPowerTable                          
0001cf08  txPwrTbl                              
20004f20  txTestOut                             
20004ea8  txTestParam                           
0000c8b4  validRangeUUID                        
20004c8c  verInfo                               
20004f40  win                                   
0001cf24  wlSize                                
20004a8c  wlTable                               
20004b10  wlTableScan                           
20004f44  workzone                              
10015d19  zADD                                  
10015eb5  zADD32                                
10015de9  zMACC32                               
10015f0d  zMULT32                               
10015bcd  zSET                                  
10015d5d  zSUB                                  
10015e69  zSUB32                                


GLOBAL SYMBOLS: SORTED BY Symbol Address 

address   name                                  
-------   ----                                  
00005721  __checksum_value                      
00008000  __TI_static_base__                    
00008001  startup_entry                         
0000804d  ATT_RegisterClient                    
00008053  ATT_ExchangeMTUReq                    
00008079  ATT_FindInfoReq                       
0000808d  ATT_FindByTypeValueReq                
000080b1  ATT_ReadByTypeReq                     
000080c9  ATT_ReadReq                           
000080d5  ATT_ReadBlobReq                       
000080e9  ATT_ReadMultiReq                      
0000810d  ATT_ReadByGrpTypeReq                  
00008125  ATT_WriteReq                          
0000816d  ATT_PrepareWriteReq                   
0000818d  ATT_ExecuteWriteReq                   
00008199  ATT_HandleValueCfm                    
000081f1  ATT_RegisterServer                    
000081f7  ATT_ErrorRsp                          
00008209  ATT_ExchangeMTURsp                    
00008221  ATT_FindInfoRsp                       
00008251  ATT_FindByTypeValueRsp                
00008271  ATT_ReadByTypeRsp                     
0000829d  ATT_ReadRsp                           
000082b9  ATT_ReadBlobRsp                       
000082d5  ATT_ReadMultiRsp                      
000082f3  ATT_ReadByGrpTypeRsp                  
00008315  ATT_WriteRsp                          
00008321  ATT_PrepareWriteRsp                   
0000833b  ATT_ExecuteWriteRsp                   
00008347  ATT_HandleValueNoti                   
0000835d  ATT_HandleValueInd                    
000083dd  ATT_ParsePacket                       
00008437  ATT_BuildErrorRsp                     
00008449  ATT_ParseErrorRsp                     
00008467  ATT_BuildExchangeMTUReq               
00008469  ATT_ParseExchangeMTUReq               
00008473  ATT_BuildExchangeMTURsp               
00008483  ATT_ParseExchangeMTURsp               
00008499  ATT_BuildFindInfoReq                  
0000849b  ATT_ParseFindInfoReq                  
000084a5  ATT_BuildFindInfoRsp                  
000084bd  ATT_ParseFindInfoRsp                  
00008501  ATT_BuildFindByTypeValueReq           
0000851b  ATT_ParseFindByTypeValueReq           
0000855d  ATT_BuildFindByTypeValueRsp           
00008565  ATT_ParseFindByTypeValueRsp           
0000857f  ATT_BuildReadByTypeReq                
000085af  ATT_ParseReadByTypeReq                
000085eb  ATT_BuildReadByTypeRsp                
000085ed  ATT_ParseReadByTypeRsp                
0000860f  ATT_BuildReadReq                      
00008611  ATT_ParseReadReq                      
0000862b  ATT_BuildReadRsp                      
0000862f  ATT_ParseReadRsp                      
00008631  ATT_ParseWriteReq                     
0000865b  ATT_BuildWriteReq                     
0000865d  ATT_ParseWriteRsp                     
00008667  ATT_BuildReadBlobReq                  
00008681  ATT_ParseReadBlobReq                  
000086a5  ATT_BuildReadBlobRsp                  
000086a9  ATT_ParseReadBlobRsp                  
000086b7  ATT_BuildReadMultiReq                 
000086bf  ATT_ParseReadMultiReq                 
000086df  ATT_BuildReadMultiRsp                 
000086e3  ATT_ParseReadMultiRsp                 
000086e5  ATT_BuildReadByGrpTypeRsp             
000086f7  ATT_ParseReadByGrpTypeRsp             
00008723  ATT_BuildPrepareWriteReq              
00008725  ATT_ParsePrepareWriteReq              
0000874d  ATT_BuildPrepareWriteRsp              
0000876b  ATT_ParsePrepareWriteRsp              
0000879d  ATT_BuildExecuteWriteReq              
000087a5  ATT_ParseExecuteWriteReq              
000087b7  ATT_ParseExecuteWriteRsp              
000087c1  ATT_BuildHandleValueInd               
000087d5  ATT_ParseHandleValueInd               
00008801  ATT_ParseHandleValueCfm               
0000880b  attSendMsg                            
00008891  ATT_CompareUUID                       
000088e1  ATT_ConvertUUIDto128                  
00008909  ATT_ConvertUUIDto16                   
00008947  ATT_UpdateMTU                         
00008971  ATT_GetMTU                            
00008991  ATT_SetParamValue                     
00008993  ATT_GetParamValue                     
00008998  btBaseUUID                            
000089a9  GAP_DeviceDiscoveryRequest            
00008a33  GAP_DeviceDiscoveryCancel             
00008a65  GAP_CentDevMgrInit                    
00008c7f  gapFindEmptyScanRec                   
00008ca7  gapFindScanRec                        
00008eed  GAP_EstablishLinkReq                  
00008fd9  GAP_CentConnRegister                  
00008fe9  gapCentProcessConnEvt                 
00009047  gapCancelLinkReq                      
00009079  gapProcessCreateLLConnCmdStatus       
000090c5  gapTerminateConnComplete              
000090c9  gapCentProcessConnUpdateCmdStatus     
000090db  gapCentProcessConnUpdateCompleteEvt   
000090ef  gapCentProcessSignalEvt               
0000913d  GAP_SetParamValue                     
00009157  GAP_GetParamValue                     
00009169  GAP_ParamsInit                        
00009191  GAP_SecParamsInit                     
000091ab  GAP_PrivacyInit                       
000091cd  GAP_GetIRK                            
000091d3  GAP_ConfigDeviceAddr                  
000092a9  gapReadBD_ADDRStatus                  
000092e5  gapReadBufSizeCmdStatus               
00009329  gapProcessNewAddr                     
00009357  gapAddAddrAdj                         
0000937b  gapHost2CtrlOwnAddrType               
00009385  gapProcessRandomAddrComplete          
000093e5  gapGetSRK                             
000093eb  gapGetSignCounter                     
000093f3  gapIncSignCounter                     
0000940d  gapGetDevAddressMode                  
00009413  gapGetDevAddress                      
00009485  GAP_ResolvePrivateAddr                
00009489  gapIsAdvertising                      
0000948d  gapIsScanning                         
00009497  gapValidADType                        
000094ab  gapFindADType                         
000094ff  gapSetState                           
00009509  gapClrState                           
00009535  GAP_TerminateLinkReq                  
000095af  GAP_UpdateLinkParamReq                
00009617  GAP_UpdateLinkParamReqReply           
000096a9  GAP_Signable                          
000096f1  GAP_Authenticate                      
0000978d  GAP_TerminateAuth                     
000097ab  GAP_PasskeyUpdate                     
000097df  GAP_PasscodeUpdate                    
0000982b  GAP_Bond                              
000098a1  gapUpdateConnSignCounter              
000098f3  gapSendSlaveSecurityReqEvent          
00009935  gapProcessConnectionCompleteEvt       
000099e3  gapProcessRemoteConnParamReqEvt       
00009a0f  gapProcessDisconnectCompleteEvt       
00009a71  sendEstLinkEvent                      
00009af5  gapSendLinkUpdateEvent                
00009c69  gapFreeEstLink                        
00009c85  gapSendBondCompleteEvent              
00009cd7  gapSendPairingReqEvent                
00009d31  gapPasskeyNeededCB                    
00009d99  gapPairingCompleteCB                  
00009ec9  gapRegisterCentralConn                
00009ecf  gapRegisterPeripheralConn             
00009ef1  GAP_MakeDiscoverable                  
00009f83  GAP_UpdateAdvertisingData             
00009feb  GAP_EndDiscoverable                   
0000a037  GAP_SetAdvToken                       
0000a0e1  GAP_GetAdvToken                       
0000a0f7  GAP_RemoveAdvToken                    
0000a141  GAP_UpdateAdvTokens                   
0000a155  GAP_PeriDevMgrInit                    
0000a515  GAP_SendSlaveSecurityRequest          
0000a54f  GAP_PeriConnRegister                  
0000a625  GAP_RegisterForMsgs                   
0000a62b  GAP_Init                              
0000a641  GAP_ProcessEvent                      
0000a709  GAP_NumActiveConnections              
0000a8dd  gapRegisterCentral                    
0000a8e3  gapRegisterPeripheral                 
0000a8e9  GAP_RegisterBondMgrCBs                
0000a911  GGS_SetParameter                      
0000a991  GGS_GetParameter                      
0000a9c7  GGS_SetParamValue                     
0000a9c9  GGS_GetParamValue                     
0000a9cd  GGS_AddService                        
0000a9e5  GGS_DelService                        
0000a9f9  GGS_RegisterAppCBs                    
0000ac30  gapServiceCBs                         
0000ac3d  GATT_InitClient                       
0000acbf  GATT_RegisterForInd                   
0000acc7  GATT_ExchangeMTU                      
0000acf3  GATT_DiscAllPrimaryServices           
0000ad3f  GATT_DiscPrimaryServiceByUUID         
0000ada1  GATT_FindIncludedServices             
0000adbb  GATT_DiscAllChars                     
0000adeb  GATT_DiscCharsByUUID                  
0000adf1  GATT_DiscAllCharDescs                 
0000ae2d  GATT_ReadCharValue                    
0000ae2f  GATT_ReadUsingCharUUID                
0000ae35  GATT_ReadLongCharValue                
0000ae37  GATT_ReadMultiCharValues              
0000ae63  GATT_WriteNoRsp                       
0000ae7f  GATT_SignedWriteNoRsp                 
0000aeaf  GATT_WriteCharValue                   
0000aeb1  GATT_WriteLongCharValue               
0000aeb3  GATT_ReliableWrites                   
0000af41  GATT_ReadCharDesc                     
0000af43  GATT_ReadLongCharDesc                 
0000af45  GATT_WriteCharDesc                    
0000af47  GATT_WriteLongCharDesc                
0000b971  GATT_InitServer                       
0000b9d9  GATT_RegisterService                  
0000ba75  GATT_DeregisterService                
0000bab5  GATT_RegisterForReq                   
0000babd  GATT_VerifyReadPermissions            
0000baf3  GATT_VerifyWritePermissions           
0000bb47  GATT_ServiceChangedInd                
0000bbb9  GATT_FindHandleUUID                   
0000bc17  GATT_FindHandle                       
0000bc63  GATT_FindNextAttr                     
0000bce7  GATT_ServiceNumAttrs                  
0000bcf3  GATT_ServiceEncKeySize                
0000bd03  GATT_SendRsp                          
0000bdb7  GATT_Indication                       
0000be23  GATT_Notification                     
0000c415  GATT_GetNextHandle                    
0000c485  GATT_SetNextHandle                    
0000c489  gattRegisterServer                    
0000c48f  gattRegisterClient                    
0000c495  GATT_RegisterForMsgs                  
0000c49b  GATT_SetHostToAppFlowCtrl             
0000c4a7  GATT_AppCompletedMsg                  
0000c4cf  GATT_Init                             
0000c4ed  GATT_ProcessEvent                     
0000c5bb  gattNotifyEvent                       
0000c611  gattStartTimer                        
0000c621  gattStopTimer                         
0000c639  GATT_NotifyEvent                      
0000c64d  GATT_UpdateMTU                        
0000c673  gattSendFlowCtrlEvt                   
0000c6a1  gattGetPayload                        
0000c6f5  GATT_bm_alloc                         
0000c76d  GATT_bm_free                          
0000c781  GATT_FindUUIDRec                      
0000c86c  gapServiceUUID                        
0000c870  gattServiceUUID                       
0000c874  primaryServiceUUID                    
0000c878  secondaryServiceUUID                  
0000c87c  includeUUID                           
0000c880  characterUUID                         
0000c884  charExtPropsUUID                      
0000c888  charUserDescUUID                      
0000c88c  clientCharCfgUUID                     
0000c890  servCharCfgUUID                       
0000c894  charFormatUUID                        
0000c898  charAggFormatUUID                     
0000c89c  deviceNameUUID                        
0000c8a0  appearanceUUID                        
0000c8a4  periPrivacyFlagUUID                   
0000c8a8  reconnectAddrUUID                     
0000c8ac  periConnParamUUID                     
0000c8b0  serviceChangedUUID                    
0000c8b4  validRangeUUID                        
0000c8b8  extReportRefUUID                      
0000c8bc  reportRefUUID                         
0000c8c1  GATTServApp_RegisterForMsg            
0000c8c9  GATTServApp_Init                      
0000c917  GATTServApp_ProcessEvent              
0000c955  GATTServApp_RegisterService           
0000c9ab  GATTServApp_DeregisterService         
0000c9ef  GATTServApp_SetParameter              
0000ca4d  GATTServApp_GetParameter              
0000cb07  GATTServApp_AddService                
0000cb1d  GATTServApp_DelService                
0000d551  GATTServApp_ReadAttr                  
0000d749  GATTServApp_WriteAttr                 
0000d7d1  GATTServApp_SetParamValue             
0000d7d3  GATTServApp_GetParamValue             
0000d7d7  GATTServApp_UpdateCharCfg             
0000d849  GATTServApp_SendCCCUpdatedEvent       
0000d88d  L2CAP_RegisterApp                     
0000d8b7  L2CAP_SendData                        
0000d919  L2CAP_CmdReject                       
0000d927  L2CAP_InfoReq                         
0000d93f  L2CAP_ConnParamUpdateReq              
0000d975  L2CAP_ConnParamUpdateRsp              
0000d987  L2CAP_SetControllerToHostFlowCtrl     
0000d9c1  L2CAP_HostNumCompletedPkts            
0000d9d7  L2CAP_SetBufSize                      
0000d9e3  L2CAP_GetMTU                          
0000da09  L2CAP_SetUserConfig                   
0000da0d  L2CAP_Init                            
0000da6f  L2CAP_ProcessEvent                    
0000db7d  L2CAP_RegisterFlowCtrlTask            
0000dcbd  l2capParseSignalHdr                   
0000dcd1  l2capSendReq                          
0000dd35  l2capSendCmd                          
0000dda5  l2capStoreFCPkt                       
0000ddcb  l2capSendPkt                          
0000de39  l2capEncapSendData                    
0000dee3  l2capParsePacket                      
0000df39  L2CAP_BuildCmdReject                  
0000df77  l2capParseCmdReject                   
0000dfb7  l2capBuildParamUpdateReq              
0000dfe3  L2CAP_ParseParamUpdateReq             
0000e01d  L2CAP_BuildParamUpdateRsp             
0000e01f  l2capParseParamUpdateRsp              
0000e029  l2capBuildInfoReq                     
0000e039  L2CAP_ParseInfoReq                    
0000e051  L2CAP_BuildInfoRsp                    
0000e097  l2capParseInfoRsp                     
0000e0ea  __checksum_value_CommonROM            
0000e0f7  l2capNotifyData                       
0000e13b  l2capNotifySignal                     
0000e189  l2capAllocConnChannel                 
0000e1db  l2capFreeChannel                      
0000e1e9  l2capFindLocalId                      
0000e213  l2capStartTimer                       
0000e227  l2capStopTimer                        
0000e283  l2capHandleRxError                    
0000e285  l2capDisconnectAllChannels            
0000e329  L2CAP_bm_alloc                        
0000e343  L2CAP_SetParamValue                   
0000e345  L2CAP_GetParamValue                   
0000e349  linkDB_Init                           
0000e397  linkDB_Register                       
0000e3b5  linkDB_Add                            
0000e41b  linkDB_Remove                         
0000e44f  linkDB_Update                         
0000e477  linkDB_GetInfo                        
0000e4b7  linkDB_Find                           
0000e4e1  linkDB_FindFirst                      
0000e513  linkDB_State                          
0000e535  linkDB_Role                           
0000e541  linkDB_NumActive                      
0000e569  linkDB_NumConns                       
0000e56f  linkDB_UpdateMTU                      
0000e58b  linkDB_MTU                            
0000e597  linkDB_Authen                         
0000e5e3  linkDB_PerformFunc                    
0000e60f  linkDB_reportStatusChange             
0000e635  SM_InitiatorInit                      
0000e64f  smEncLTK                              
0000e687  SM_StartEncryption                    
0000ebbd  SM_CalcRandomAddr                     
0000ebf5  SM_ResolveRandomAddrs                 
0000ec4b  SM_Encrypt                            
0000ec89  smStartRspTimer                       
0000eca5  smStopRspTimer                        
0000ecb5  sm_d1                                 
0000ed0d  sm_dm                                 
0000ed37  sm_c1new                              
0000ee05  sm_s1                                 
0000ee45  smGenerateRandBuf                     
0000ee6f  smAuthReqToUint8                      
0000ee9d  smUint8ToAuthReq                      
0000eee5  SM_GenerateAuthenSig                  
0000ef7f  SM_VerifyAuthenSig                    
0000f24c  const_Rb                              
0000f25d  SM_StartPairing                       
0000f2eb  SM_PasskeyUpdate                      
0000f369  smRegisterInitiator                   
0000f371  smRegisterResponder                   
0000f379  smLinkCheck                           
0000f39b  smTimedOut                            
0000f3a1  smProcessDataMsg                      
0000f475  smSendFailAndEnd                      
0000f491  smProcessEncryptChange                
0000f541  smNextPairingState                    
0000f571  sm_c1                                 
0000f60f  smProcessPairingReq                   
0000f665  smStartEncryption                     
0000f67f  smGeneratePairingReqRsp               
0000f6ab  smGenerateConfirm                     
0000f6c3  smGenerateRandMsg                     
0000f6ed  smSavePairInfo                        
0000f88d  smPairingSendEncInfo                  
0000f893  smPairingSendMasterID                 
0000f8bb  smPairingSendIdentityInfo             
0000f8c5  smPairingSendIdentityAddrInfo         
0000f8e9  smPairingSendSigningInfo              
0000f939  smEndPairing                          
0000f969  smDetermineKeySize                    
0000f9f9  smSendFailureEvt                      
0000fa41  SM_ResponderInit                      
0000ffb1  SM_Init                               
0000ffcd  SM_ProcessEvent                       
00010099  smpBuildPairingReq                    
000100a1  smpBuildPairingRsp                    
000100a7  smpBuildPairingReqRsp                 
0001014f  smpParsePairingReq                    
00010223  smpBuildPairingConfirm                
00010235  smpParsePairingConfirm                
0001024b  smpBuildPairingRandom                 
0001026d  smpParsePairingRandom                 
00010283  smpBuildPairingFailed                 
0001029b  smpParsePairingFailed                 
000102b9  smpBuildEncInfo                       
000102cb  smpParseEncInfo                       
000102e1  smpBuildMasterID                      
00010305  smpParseMasterID                      
00010329  smpBuildIdentityInfo                  
0001033b  smpBuildIdentityAddrInfo              
00010359  smpParseIdentityInfo                  
0001036f  smpParseIdentityAddrInfo              
0001038b  smpBuildSigningInfo                   
0001039d  smpParseSigningInfo                   
000103b3  smpBuildSecurityReq                   
000103cf  smpParseSecurityReq                   
000103eb  smSendSMMsg                           
00010435  llProcessSlaveControlPacket           
0001085d  llProcessMasterControlPacket          
00010c95  llSetupConnRxDataEntryQueue           
00010d1b  llCreateRxBuffer                      
00010d49  llCheckRxBuffers                      
00010d6f  llReplaceRxBuffers                    
00010da1  llSetupRfHal                          
00010dbb  llSetupRATChanCompare                 
00010ded  llRatChanCBack_A                      
00010def  RFHAL_InitRfHal                       
00010e53  RFHAL_AddTxDataEntry                  
00010ef1  LL_RxDataCompleteCback                
00010f99  hciInitEventMasks                     
00010fe5  LL_ConnParamUpdateCback               
00011069  LL_ReadRemoteUsedFeaturesCompleteCback
000110d5  HCI_NumOfCompletedPacketsEvent        
000111b7  LL_AuthPayloadTimeoutExpiredCback     
0001122b  LL_RemoteConnParamReqCback            
000112f9  LL_EnhancedConnectionCompleteCback    
00011511  HCI_VendorSpecifcCommandCompleteEvent 
0001158d  HCI_ValidConnTimeParams               
000115c9  HCI_ResetCmd                          
000115eb  HCI_ReadLocalSupportedCommandsCmd     
000115ff  HCI_EXT_GetConnInfoCmd                
0001168d  HCI_ReadAuthPayloadTimeoutCmd         
000116a5  HCI_WriteAuthPayloadTimeoutCmd        
000116bf  HCI_LE_ReadBufSizeCmd                 
000116ed  HCI_LE_RemoteConnParamReqReplyCmd     
0001171f  HCI_LE_RemoteConnParamReqNegReplyCmd  
00011747  HCI_LE_ReadRemoteUsedFeaturesCmd      
00011771  HCI_LE_TransmitterTestCmd             
00011783  HCI_LE_ReceiverTestCmd                
00011795  HCI_SetEventMaskPage2Cmd              
000117bd  HCI_LE_ConnUpdateCmd                  
000117df  HCI_EXT_ResetSystemCmd                
00011805  HCI_EXT_DelaySleepCmd                 
00011829  HCI_EXT_ConnEventNoticeCmd            
0001182d  HCI_LE_SetEventMaskCmd                
00011865  HCI_ReadLocalVersionInfoCmd           
000118bd  HCI_ReadRssiCmd                       
000118e8  supportedCmdsTable                    
0001192d  llValidAccessAddr                     
00011971  llDirAdv_TaskEnd                      
000119d3  llAdv_TaskEnd                         
00011a9f  llAdv_TaskConnect                     
00011eb9  llVerifyConnParamReqParams            
00011f3b  llAllocConnId                         
000120c7  llInitFeatureSet                      
000120df  llSetupFeatureSetReq                  
0001212d  llSetupFeatureSetRsp                  
00012185  llSetupPingReq                        
000121b7  llSetupPingRsp                        
00012207  llSetupUpdateChanReq                  
00012283  llSetupConnParamReq                   
000122c7  llSetupConnParamRsp                   
00012373  llSetupRejectIndExt                   
000123e3  llSetupStartEncReq                    
00012423  llProcessTxData                       
0001248d  llConnCleanup                         
00012575  llDequeueCtrlPkt                      
000125b3  llReplaceCtrlPkt                      
000125d9  llSortActiveConns                     
00012647  llRealignConn                         
00012825  llGetNextConn                         
000129f3  llGetMinCI                            
00012a5d  llFragmentPDU                         
00012abf  llCombinePDU                          
00012bef  llAlignToNextEvent                    
00012ca9  llCBTimer_AptoExpiredCback            
00012d03  llRfSetup                             
00012d4b  llRfInit                              
00012db9  llSetTxPower                          
00012e09  llGetTxPower                          
00012e25  llCheckWhiteListUsage                 
00012e69  llProcessChanMap                      
00012ea9  llGetNextDataChan                     
00012ef5  llSetNextDataChan                     
00012f3d  llConnExists                          
00013015  llSendReject                          
00013061  llSetupTermInd                        
000130c9  llWriteTxData                         
00013145  llTime2Octets                         
00013173  llOctets2Time                         
000131a7  llHaltRadio                           
000131cd  llRfStartFS                           
00013245  llResetRadio                          
00013247  llHardwareError                       
0001324b  llSetupConn                           
00013289  llValidateConnParams                  
000133a1  LL_ENC_Encrypt                        
0001340f  LL_ENC_Decrypt                        
000134c1  llInit_TaskConnect                    
00013773  llInit_TaskEnd                        
000137e9  llMaster_TaskEnd                      
00013963  llSetupNextMasterEvent                
00013a8d  llProcessMasterControlProcedures      
00014549  LL_Init                               
00014891  LL_ProcessEvent                       
00014a25  LL_Reset                              
00014b39  LL_EXT_GetConnInfo                    
00014be9  LL_ReadAuthPayloadTimeout             
00014c09  LL_WriteAuthPayloadTimeout            
00014c77  LL_StartEncrypt                       
00014d59  LL_EncLtkReply                        
00014daf  LL_EncLtkNegReply                     
00014deb  LL_ReadRemoteUsedFeatures             
00014e47  LL_EXT_SetLocalSupportedFeatures      
00014e7d  LL_EXT_SetTxPower                     
00014ea7  LL_EXT_SetMaxDtmTxPower               
00014ebf  LL_ReadTxPowerLevel                   
00014efb  LL_TxData                             
00014fa9  LL_EXT_ModemHopTestTx                 
00015055  LL_EXT_ModemTestTx                    
000150d9  LL_EXT_ModemTestRx                    
00015179  LL_EXT_EndModemTest                   
000151d5  LL_DirectTestTxTest                   
00015355  LL_DirectTestRxTest                   
00015439  LL_DirectTestEnd                      
000154b1  LL_RemoteConnParamReqReply            
00015535  LL_RemoteConnParamReqNegReply         
00015589  LL_ConnUpdate                         
00015689  LL_SetAdvParam                        
00015791  LL_SetAdvControl                      
00015897  LL_SetScanParam                       
00015921  LL_SetScanControl                     
000159ef  LL_CreateConn                         
00015c11  LL_CreateConnCancel                   
00015c99  LL_ChanMapUpdate                      
00015d3b  LL_ReadSupportedStates                
00015d97  LL_GetNumActiveConns                  
00015da3  LL_ReadRssi                           
00015df3  LL_EXT_ConnEventNotice                
00015e23  LL_EXT_NumComplPktsLimit              
00015e45  LL_EXT_BuildRevision                  
00015e71  LL_EXT_DisconnectImmed                
00015f09  llInitRAT                             
00015f0b  llGetCurrentTime                      
00015f19  llScan_TaskEnd                        
00015f51  llProcessScanRxFIFO                   
00016001  llSchedulerInit                       
00016033  llAllocTask                           
0001608d  llGetTaskState                        
000160af  llActiveTask                          
000160e5  llGetTask                             
00016115  llScheduleTask                        
000161a9  llSlave_TaskEnd                       
000163cf  llSetupNextSlaveEvent                 
00016705  llProcessSlaveControlProcedures       
00016af1  LL_PM_GetRfCoreState                  
00016af5  LL_PM_Enter_AES                       
00016b0b  LL_PM_Exit_AES                        
00016b35  LL_PM_PowerOffRfCore                  
00016b37  WL_Clear                              
00016b5b  WL_GetNumFreeEntries                  
00016b65  WL_FindEntry                          
00016ba7  WL_SetWlIgnore                        
00016bc7  WL_ClearIgnoreList                    
00016be5  rfPUpCallback                         
00016bf1  rfCallback                            
00016c1b  LL_DoorbellErrorCback                 
00016c2d  LL_LastCmdDoneCback                   
00016f37  LL_TxDoneCback                        
00016f4b  LL_TxEntryDoneCback                   
00016f65  LL_RxIgnoredCback                     
00016f67  LL_RxEntryDoneCback                   
00017171  HCI_Init                              
000171b1  HCI_ProcessEvent                      
000171ff  HCI_TestAppTaskRegister               
00017207  HCI_GAPTaskRegister                   
0001720f  HCI_L2CAPTaskRegister                 
00017217  HCI_SMPTaskRegister                   
0001721f  HCI_ExtTaskRegister                   
00017227  hciSerialPacketParser                 
000174e3  hciProcessHostToCtrlCmd               
00017575  hciProcessHostToCtrlData              
0001759f  hciProcessCtrlToHost                  
00017655  hciDisconnect                         
0001766b  hciReadRemoteVersionInfo              
0001767f  hciSetEventMask                       
0001768b  hciSetEventMaskPage2                  
00017697  hciReset                              
000176a1  hciReadTransmitPowerLevel             
000176b7  hciSetControllerToHostFlowCtrl        
000176c3  hciHostBufferSize                     
000176f1  hciHostNumCompletedPkt                
00017701  hciReadAuthPayloadTimeout             
00017717  hciWriteAuthPayloadTimeout            
00017737  hciReadLocalVersionInfo               
00017741  hciReadLocalSupportedCommands         
0001774b  hciReadLocalSupportedFeatures         
00017755  hciReadRssi                           
00017769  hciLESetEventMask                     
00017775  hciLEReadBufSize                      
0001777f  hciLEReadLocalSupportedFeatures       
00017789  hciLESetRandomAddr                    
00017795  hciLESetAdvParam                      
000177cd  hciLESetAdvData                       
000177db  hciLESetScanRspData                   
000177e9  hciLESetAdvEnab                       
000177f5  hciLEReadAdvChanTxPower               
000177ff  hciLESetScanParam                     
0001782b  hciLESetScanEnable                    
00017839  hciLECreateConn                       
000178b1  hciLECreateConnCancel                 
000178bb  hciLEReadWhiteListSize                
000178c5  hciLEClearWhiteList                   
000178cf  hciLEAddWhiteList                     
000178dd  hciLERemoveWhiteList                  
000178eb  hciLEConnUpdate                       
00017947  hciLESetHostChanClass                 
00017953  hciLEReadChanMap                      
00017967  hciLEReadRemoteUsedFeatures           
0001797b  hciLEEncrypt                          
0001799d  hciLERand                             
000179a7  hciLEStartEncrypt                     
000179c5  hciLELtkReqReply                      
000179db  hciLELtkReqNegReply                   
000179ef  hciLEReadSupportedStates              
000179f9  hciLEReceiverTest                     
00017a05  hciLETransmitterTest                  
00017a15  hciLETestEnd                          
00017a1f  hciLERemoteConnParamReqReply          
00017a7b  hciLERemoteConnParamReqNegReply       
00017a91  hciExtSetRxGain                       
00017a9d  hciExtSetTxPower                      
00017aa9  hciExtExtendRfRange                   
00017ab3  hciExtHaltDuringRf                    
00017abf  hciExtSetMaxDtmTxPower                
00017acb  hciExtMapPmIoPort                     
00017ad9  hciExtDisconnectImmed                 
00017aed  hciExtPER                             
00017b03  hciExtOverlappedProcessing            
00017b0f  hciExtNumComplPktsLimit               
00017b1d  hciExtGetConnInfo                     
00017b2d  hciExtOnePktPerEvt                    
00017b39  hciExtClkDivOnHalt                    
00017b45  hciExtDeclareNvUsage                  
00017b51  hciExtDecrypt                         
00017b73  hciExtSetLocalSupportedFeatures       
00017b7f  hciExtSetFastTxResponseTime           
00017b8b  hciExtSetSlaveLatencyOverride         
00017b97  hciExtSetSCA                          
00017bab  hciExtBuildRevision                   
00017bc3  hciExtDelaySleep                      
00017bd7  hciExtResetSystem                     
00017be3  hciReadBDADDR                         
00017bed  hciExtModemTestTx                     
00017bfb  hciExtModemHopTestTx                  
00017c05  hciExtModemtestRx                     
00017c11  hciExtEndModemTest                    
00017c1b  hciExtSetBDADDR                       
00017c27  hciExtEnablePTM                       
00017c31  hciExtSetFreqTune                     
00017c3d  hciExtSaveFreqTune                    
00017c49  __TI_auto_init                        
00017cb5  __aeabi_lmul                          
00017ccd  __aeabi_memcpy                        
00017ccd  __aeabi_memcpy4                       
00017ccd  __aeabi_memcpy8                       
00017ccd  memcpy                                
00017d69  __aeabi_memclr                        
00017d69  __aeabi_memclr4                       
00017d69  __aeabi_memclr8                       
00017d6b  __aeabi_memset                        
00017d6b  __aeabi_memset4                       
00017d6b  __aeabi_memset8                       
00017d71  memset                                
00017de3  __aeabi_uldivmod                      
00017fd7  NOROM_CPUcpsie                        
00017fe3  NOROM_CPUcpsid                        
00017ff1  NOROM_FlashSectorErase                
0001800d  NOROM_FlashProgram                    
00018029  NOROM_IntEnable                       
00018099  NOROM_IntDisable                      
000180f5  NOROM_TRNGConfigure                   
00018129  NOROM_VIMSModeGet                     
00018139  osalFindTimer                         
00018153  osalAddTimer                          
00018197  osalDeleteTimer                       
0001819f  osal_get_timeoutEx                    
000181e1  osalTimerUpdate                       
000182c3  osal_timer_refTimeUpdate              
0001830f  osal_start_timerEx                    
00018349  osal_stop_timerEx                     
00018379  osal_start_reload_timer               
000183af  osalTimerInit                         
000183bf  osal_next_timeout                     
00018401  ROM_Spinlock                          
00018437  CommonROM_Init                        
00018457  ROM_Init                              
00018495  HalTRNG_InitTRNG                      
000184b7  HalTRNG_GetTRNG                       
000184fd  halAssertHandler                      
000184ff  halAssertSpinlock                     
00018501  halAssertHandlerExt                   
00018517  halAssertInit                         
00018531  Onboard_soft_reset                    
00018533  appForceBoot                          
00018535  Onboard_rand                          
00018535  osal_rand                             
00018565  osal_bm_adjust_header                 
0001858d  osal_bm_alloc                         
000185bf  osal_bm_free                          
00018615  osal_memset                           
00018619  osal_memcpy                           
00018631  osal_msg_allocate                     
00018655  osal_self                             
0001865b  osal_msg_deallocate                   
00018691  osal_msg_extract                      
000186c5  osal_msg_receive                      
00018725  osal_memcmp                           
00018745  osal_isbufset                         
0001875f  osal_msg_enqueue                      
0001878f  osal_msg_push                         
00018807  osal_msg_send                         
0001888d  osal_set_event                        
00018921  osal_clear_event                      
000189e1  osal_service_entry                    
00018a27  osal_enroll_dispatchid                
00018a33  osal_enroll_senderid                  
00018a75  osal_init_system                      
00018b79  osal_run_system                       
00018c97  osal_start_system                     
00018cb3  osal_strlen                           
00018cc1  osal_revmemcpy                        
00018cdd  osal_msg_push_front                   
00018ce3  osal_memdup                           
00018cff  osal_build_uint32                     
00018d31  osal_buffer_uint32                    
00018d69  HalFlashGetAddress                    
00018d83  HalFlashRead                          
00018daf  HalFlashWrite                         
00018dc1  osal_CbTimerProcessEvent              
00018e4b  osal_CbTimerInit                      
00018e63  osal_CbTimerUpdate                    
00018ec3  osal_CbTimerStop                      
00018f9b  osal_CbTimerStart                     
000192c1  NVOCOP_writeItem                      
0001935d  osal_snv_write                        
0001937b  NVOCOP_readItem                       
000193a3  osal_snv_read                         
000193ed  NVOCOP_initNV                         
00019429  osal_snv_init                         
00019439  memcmp                                
0001bd03  bleDispatch_ProcessEvent              
0001bdd5  bleDispatch_BMAlloc                   
0001be01  bleDispatch_BMFree                    
0001be19  bleDispatch_Init                      
0001be61  GAP_DeviceInit                        
0001bec5  NPI_RegisterTask                      
0001becb  NPI_WriteTransport                    
0001bf15  NPI_RxBufLen                          
0001bf19  NPI_ReadTransport                     
0001bf1d  NPI_GetMaxRxBufSize                   
0001bf49  osal_pwrmgr_task_state                
0001bfb3  osal_pwrmgr_init                      
0001c001  osalAdjustTimer                       
0001c053  osal_mem_alloc                        
0001c057  osal_mem_free                         
0001c079  setBleUserConfig                      
0001c135  osalInitTasks                         
0001c1ab  stack_main                            
0001c1f9  strlen                                
0001c20d  copy_in                               
0001c259  __TI_zero_init                        
0001c2cf  __TI_decompress_rle24                 
0001c2d5  __TI_decompress_none                  
0001c307  GATTServApp_ReadCharCfg               
0001c317  GATTServApp_InitCharCfg               
0001c800  tasksArr                              
0001c824  R2F_Flash_JT_CommonROM                
0001c83c  R2F_Flash_JT                          
0001c8e4  R2R_Flash_JT_CommonROM                
0001c9d8  R2R_Flash_JT                          
0001cf04  txPowerTable                          
0001cf08  txPwrTbl                              
0001cf10  rfCfgVal                              
0001cf14  rxPktSuffix                           
0001cf18  advPktSuffix                          
0001cf1c  scanPktSuffix                         
0001cf20  initPktSuffix                         
0001cf24  wlSize                                
0001cf28  maxPktsPerEvt                         
0001cf2c  rfOpLoc                               
0001cf30  llConfigTable                         
0001cf60  ll_buildRevision                      
0001cf64  hciCmdTable                           
0001d1d8  __TI_Handler_Table_Base               
0001d1e4  __TI_CINIT_Base                       
0001d1e4  __TI_Handler_Table_Limit              
0001d1f4  __TI_CINIT_Limit                      
0001e000  NV_FLASH                              
10005000  A1_rw_1                               
10005000  __checksum_begin                      
10005001  ROM_BASE_ADDR                         
10005004  P1_ro_1                               
10005549  LL_TX_bm_alloc                        
1000556d  LL_RX_bm_alloc                        
100056c9  LL_ReadBDADDR                         
100056e9  LL_SetRandomAddress                   
10005719  LL_ClearWhiteList                     
10005739  LL_AddWhiteListDevice                 
10005765  LL_RemoveWhiteListDevice              
100057a1  LL_ReadWlSize                         
100057b9  LL_NumEmptyWlEntries                  
100057d5  LL_Encrypt                            
100057f5  LL_Rand                               
10005801  LL_PseudoRand                         
10005879  LL_ReadLocalSupportedFeatures         
1000589d  LL_ReadLocalVersionInfo               
100058d5  LL_CtrlToHostFlowControl              
100058e9  LL_ReadRemoteVersionInfo              
100059a1  LL_ReadChanMap                        
10005a39  LL_Disconnect                         
10005f89  LL_SetAdvData                         
10006105  LL_ReadAdvChanTxPower                 
1000612d  LL_SetScanRspData                     
1000678d  LL_ConnActive                         
10006ad9  LL_EXT_SetRxGain                      
10006b59  LL_EXT_OnePacketPerEvent              
10006b7d  LL_EXT_ClkDivOnHalt                   
10006b81  LL_EXT_DeclareNvUsage                 
10006b85  LL_EXT_Decrypt                        
10006bc5  LL_EXT_SetFastTxResponseTime          
10006bdd  LL_EXT_SetSlaveLatencyOverride        
10006e01  LL_EXT_SetBDADDR                      
10006e85  LL_EXT_SetSCA                         
10006ef9  LL_EXT_SetFreqTune                    
10006efd  LL_EXT_SaveFreqTune                   
10006f49  LL_EXT_MapPmIoPort                    
10006f99  LL_EXT_PacketErrorRate                
10006fed  LL_EXT_PERbyChan                      
1000701d  LL_EXT_ExtendRfRange                  
10007021  LL_EXT_HaltDuringRf                   
10007025  LL_EXT_AdvEventNotice                 
100070a1  LL_EXT_DelaySleep                     
100070d5  LL_EXT_ResetSystem                    
10007109  LL_EXT_OverlappedProcessing           
100072e1  llSetFreqTune                         
100072e5  llDisableRfInts                       
100072e9  llClearRfInts                         
100072ed  llEnableRfInts                        
100072f1  llProcessPostRfOps                    
100073e5  llSetupAdv                            
100075fd  llSetupScan                           
100077b5  llSetupInit                           
100079c9  llSetupUpdateParamReq                 
10007aed  llSetupEncReq                         
10007b95  llSetupEncRsp                         
10007ca9  llSetupStartEncRsp                    
10007cfd  llSetupPauseEncReq                    
10007d55  llSetupPauseEncRsp                    
10007df5  llSetupRejectInd                      
10007f29  llSetupVersionIndReq                  
10008069  llSetupUnknownRsp                     
100080bd  llEnqueueCtrlPkt                      
100082f1  llAtLeastTwoChans                     
10008429  llReleaseConnId                       
10008461  llReleaseAllConnId                    
10008631  llConnTerminate                       
10008665  llPendingUpdateParam                  
100086b9  llGenerateCRC                         
100086f1  llEventInRange                        
10008719  llEventDelta                          
10008721  llConvertLstoToEvent                  
10008741  llConvertCtrlProcTimeoutToEvent       
10008889  llEnqueueDataQ                        
100088b5  llEnqueueHeadDataQ                    
10008921  llDequeueDataQ                        
10008965  llDataQFull                           
10008985  llDataQEmpty                          
100089d9  llMemCopySrc                          
100089f1  llMemCopyDst                          
10008a2d  HCI_DataBufferOverflowEvent           
10008add  HCI_CommandCompleteEvent              
10008ba1  HCI_CommandStatusEvent                
10008bf5  HCI_HardwareErrorEvent                
10008c59  HCI_SendCommandStatusEvent            
10008c81  HCI_SendCommandCompleteEvent          
10008d31  HCI_SendControllerToHostEvent         
10008d81  LL_AdvReportCback                     
10008ead  LL_ConnectionCompleteCback            
10009005  LL_DisconnectCback                    
100091e1  LL_ReadRemoteVersionInfoCback         
1000925d  LL_EncLtkReqCback                     
1000933d  LL_EncChangeCback                     
100093dd  LL_EncKeyRefreshCback                 
10009471  LL_DirectTestEndDoneCback             
100094a1  HCI_bm_alloc                          
100094e9  HCI_SendDataPkt                       
10009525  HCI_DisconnectCmd                     
10009541  HCI_ReadRemoteVersionInfoCmd          
10009571  HCI_SetEventMaskCmd                   
100095d1  HCI_ReadTransmitPowerLevelCmd         
100095f5  HCI_SetControllerToHostFlowCtrlCmd    
10009631  HCI_HostBufferSizeCmd                 
1000965d  HCI_HostNumCompletedPktCmd            
1000973d  HCI_ReadLocalSupportedFeaturesCmd     
10009765  HCI_ReadBDADDRCmd                     
10009829  HCI_LE_ReadLocalSupportedFeaturesCmd  
10009849  HCI_LE_SetRandomAddressCmd            
1000986d  HCI_LE_SetAdvParamCmd                 
100098a1  HCI_LE_SetAdvDataCmd                  
100098bd  HCI_LE_SetScanRspDataCmd              
100098d9  HCI_LE_SetAdvEnableCmd                
100098f5  HCI_LE_ReadAdvChanTxPowerCmd          
10009915  HCI_LE_SetScanParamCmd                
10009941  HCI_LE_SetScanEnableCmd               
1000995d  HCI_LE_CreateConnCmd                  
1000999d  HCI_LE_CreateConnCancelCmd            
100099c9  HCI_LE_ReadWhiteListSizeCmd           
100099f9  HCI_LE_ClearWhiteListCmd              
10009a15  HCI_LE_AddWhiteListCmd                
10009a31  HCI_LE_RemoveWhiteListCmd             
10009a85  HCI_LE_SetHostChanClassificationCmd   
10009aa1  HCI_LE_ReadChannelMapCmd              
10009af5  HCI_LE_EncryptCmd                     
10009b51  HCI_LE_RandCmd                        
10009ba9  HCI_LE_StartEncyptCmd                 
10009bc5  HCI_LE_LtkReqReplyCmd                 
10009be1  HCI_LE_LtkReqNegReplyCmd              
10009c15  HCI_LE_ReadSupportedStatesCmd         
10009c8d  HCI_LE_TestEndCmd                     
10009cd5  HCI_EXT_SetRxGainCmd                  
10009d09  HCI_EXT_SetTxPowerCmd                 
10009d45  HCI_EXT_OnePktPerEvtCmd               
10009d79  HCI_EXT_ClkDivOnHaltCmd               
10009dad  HCI_EXT_DeclareNvUsageCmd             
10009dd1  HCI_EXT_DecryptCmd                    
10009e2d  HCI_EXT_SetLocalSupportedFeaturesCmd  
10009e4d  HCI_EXT_SetFastTxResponseTimeCmd      
10009e6d  HCI_EXT_SetSlaveLatencyOverrideCmd    
10009e8d  HCI_EXT_ModemTestTxCmd                
10009ead  HCI_EXT_ModemHopTestTxCmd             
10009ecd  HCI_EXT_ModemTestRxCmd                
10009eed  HCI_EXT_EndModemTestCmd               
10009f0d  HCI_EXT_SetBDADDRCmd                  
10009f49  HCI_EXT_SetSCACmd                     
10009f69  HCI_EXT_EnablePTMCmd                  
10009f81  HCI_EXT_SetFreqTuneCmd                
10009fb1  HCI_EXT_SaveFreqTuneCmd               
10009fd1  HCI_EXT_SetMaxDtmTxPowerCmd           
10009ff1  HCI_EXT_MapPmIoPortCmd                
1000a011  HCI_EXT_DisconnectImmedCmd            
1000a031  HCI_EXT_PacketErrorRateCmd            
1000a075  HCI_EXT_PERbyChanCmd                  
1000a095  HCI_EXT_ExtendRfRangeCmd              
1000a0d1  HCI_EXT_HaltDuringRfCmd               
1000a0f1  HCI_EXT_AdvEventNoticeCmd             
1000a109  HCI_EXT_BuildRevisionCmd              
1000a195  HCI_EXT_OverlappedProcessingCmd       
1000a1b5  HCI_EXT_NumComplPktsLimitCmd          
1000a1d5  LL_RandCback                          
1000a201  LL_EXT_SetRxGainCback                 
1000a211  LL_EXT_SetTxPowerCback                
1000a259  LL_EXT_PacketErrorRateCback           
1000a2ad  LL_EXT_ExtendRfRangeCback             
1000a335  llScheduler                           
1000a895  llFindStartType                       
1000a939  llFindNextSecTask                     
1000abed  llFreeTask                            
1000ac3d  llGetCurrentTask                      
1000aca9  llGetActiveTasks                      
1000ace1  llGetNumTasks                         
1000adb1  llPatchCM0                            
1000ae41  llRatChanCBack_B                      
1000ae45  llRatChanCBack_C                      
1000ae49  llRatChanCBack_D                      
1000ae4d  llSetupScanDataEntryQueue             
1000ae95  llSetupInitDataEntryQueue             
1000aeb1  llSetupAdvDataEntryQueue              
1000afa1  llMoveTempTxDataEntries               
1000b009  llGetNumTxDataEntries                 
1000b4c9  LL_ENC_Init                           
1000b4ed  LL_ENC_ReverseBytes                   
1000b50d  LL_ENC_GeneratePseudoRandNum          
1000b51d  LL_ENC_GenerateTrueRandNum            
1000b541  LL_ENC_GenDeviceSKD                   
1000b555  LL_ENC_GenDeviceIV                    
1000b569  LL_ENC_GenerateNonce                  
1000b58d  LL_ENC_LoadKey                        
1000b5f5  LL_ENC_AES128_Encrypt                 
1000b639  LL_ENC_AES128_Decrypt                 
1000b721  LL_ENC_EncryptMsg                     
1000b851  LL_ENC_DecryptMsg                     
1000c1b5  llCheckForLstoDuringSL                
1000cd51  llAdv_TaskAbort                       
1000d189  WL_Init                               
1000d1f5  WL_ClearEntry                         
1000d229  WL_GetSize                            
1000d2d9  WL_AddEntry                           
1000d36d  WL_RemoveEntry                        
1000d4ad  llGetAdvChanPDU                       
1000d695  llGenerateValidAccessAddr             
1000d6b1  llGtSixConsecZerosOrOnes              
1000d6e5  llEqSynchWord                         
1000d6f5  llOneBitSynchWordDiffer               
1000d709  llEqualBytes                          
1000d731  llGtTwentyFourTransitions             
1000d761  llLtTwoChangesInLastSixBits           
1000d795  llEqAlreadyValidAddr                  
1000d7cd  HCI_ReverseBytes                      
1000d8c9  llTimeCompare                         
1000d8f5  llTimeDelta                           
1000d94d  llCalcScaFactor                       
1000d964  SCA                                   
1000d9b0  advChan                               
1000d9b4  advEvt2Cmd                            
1000d9c0  advEvt2State                          
1000d9e1  llTaskError                           
1000d9ec  Fill1_1                               
1000dffc  A3_rw_1                               
1000dffc  romRev                                
1000dffd  __checksum_end                        
1000dffe  A2_rw_1                               
1000dffe  P1_ro_2_1                             
1000dffe  __checksum                            
10014c00  A1_rw                                 
10014c00  __checksum_begin_CommonROM            
10014c01  COMMON_ROM_BASE_ADDR                  
10014c04  P1_ro                                 
10014c05  SCALARMUL_init                        
10014ced  SCALARMUL_core                        
10015019  SCALARMUL_final                       
100150e5  SCALARMUL                             
10015101  SAVEPOINT                             
10015141  GETBIT                                
10015155  GETDIGIT                              
100151a5  GETDIGITL2R                           
10015215  SelectReg                             
10015229  ATOMICPATTERN                         
100154f5  JACADD                                
1001568d  INVERT                                
10015821  SQUAREMULTIPLYWORD                    
1001588c  LUTOPCODE                             
10015894  LUTOPSIGN                             
100158ac  LUTC                                  
100158c4  LUTSE                                 
100158dc  LUTINCI                               
100158f4  LUTJ                                  
1001596c  LUTSTATE                              
100159a9  IMPORTLENGTH                          
100159ad  IMPORTMODULUS                         
100159d1  IMPORTOPERAND                         
10015a11  EXPORTOPERAND                         
10015a35  IMPORTDATA                            
10015a51  SETOPERAND                            
10015a6d  COPY                                  
10015a85  ZERO                                  
10015a91  SETWORD                               
10015a9d  mSET                                  
10015bcd  zSET                                  
10015bd5  mINVK                                 
10015d19  zADD                                  
10015d5d  zSUB                                  
10015de9  zMACC32                               
10015e69  zSUB32                                
10015eb5  zADD32                                
10015f0d  zMULT32                               
10015f81  mMULT                                 
10016551  mADD                                  
1001664d  mSUB                                  
10016749  mOUT                                  
10016975  ssp_KeyInit_Sw                        
10016979  sspAesEncrypt_Sw                      
10016985  sspKeyExpansion_Sw                    
10016a99  sspAesEncryptKeyExp_Sw                
10016af5  sspAesEncryptBasic_Sw                 
10016b79  RoundKey_Sw                           
10016c29  AddRoundKeySubBytes_Sw                
10016c45  ShiftRows_Sw                          
10016c79  MixColumns_Sw                         
10016d05  FFMult_Sw                             
10016d29  sspAesDecrypt_Sw                      
10016da1  InvAddRoundKey_Sw                     
10016dc9  InvRoundKey_Sw                        
10016e8d  InvSubBytes_Sw                        
10016ea1  InvShiftRows_Sw                       
10016ed5  InvMixColumns_Sw                      
10016f58  FFMult2                               
10017058  FFMult3                               
10017158  RCon                                  
10017164  Sbox                                  
10017264  InvSbox                               
10017365  SSP_CCM_Auth_Sw                       
100174fd  SSP_CCM_Encrypt_Sw                    
100175ed  SSP_CTR_Encrypt_Sw                    
1001767d  SSP_CCM_Decrypt_Sw                    
10017771  SSP_CTR_Decrypt_Sw                    
10017839  SSP_CCM_InvAuth_Sw                    
10017895  SSP_CCM_Auth_Encrypt_Sw               
100178f5  SSP_CCM_InvAuth_Decrypt_Sw            
10017959  ECC_allocWorkzone                     
10017961  ECC_setWin                            
10017969  ECDSA_sign                            
10017b01  ECDSA_verif                           
10017dbd  ECC_keyGen                            
10017ded  ECDH_commonKey                        
10017e39  SHA256_updateW                        
10017e75  SHA256_round                          
10017ef1  SHA256_nextState                      
10017f49  SHA256_saveBuffer                     
10017ffd  SHA256_init                           
10018019  SHA256_process                        
10018089  SHA256_final                          
10018129  SHA256_full                           
10018315  RFHAL_AllocRatChan                    
1001833d  RFHAL_FreeRatChan                     
10018369  RFHAL_MapRatChansToInt                
10018391  RFHAL_RegisterRatChanCallback         
100183b9  RFHAL_InitDataQueue                   
100183c5  RFHAL_QueueRFDataEntries              
10018485  RFHAL_FreeNextTxDataEntry             
100184a9  RFHAL_AllocDataEntryQueue             
100184c5  RFHAL_FreeDataEntryQueue              
100184cd  RFHAL_GetNextDataEntry                
100184d1  RFHAL_GetTempDataEntry                
100184d5  RFHAL_NextDataEntryDone               
100184f9  RFHAL_AllocDataEntry                  
10018549  RFHAL_FreeDataEntry                   
10018551  RFHAL_BuildRingBuffer                 
100185e1  RFHAL_BuildDataEntryRingBuffer        
10018669  RFHAL_BuildLinkedBuffer               
10018a19  AesCcm_authEncrypt_Sw                 
10018a35  AesCcm_decryptAuth_Sw                 
10018a99  Aes_encrypt_Sw                        
10018ac5  Aes_decrypt_Sw                        
10018b09  AesCcm_getNumBlocks_Sw                
10018b0c  NIST256_p                             
10018b30  NIST256_r                             
10018b54  NIST256_a                             
10018b78  NIST256_b                             
10018b9c  NIST256_Gx                            
10018bc0  NIST256_Gy                            
10018ced  __exit                                
10018d6c  Fill1                                 
10019ffc  A3_rw                                 
10019ffd  __checksum_end_CommonROM              
10019ffe  A2_rw                                 
10019ffe  P1_ro_2                               
10019ffe  __checksum_CommonROM                  
20004370  pGapDiscReq                           
20004374  pGapAdvertState                       
20004378  gapState                              
20004379  gattNumConns                          
2000437a  gattTaskID                            
2000437c  pfnPeripheralConnCBs                  
20004380  pfnBondMgrCBs                         
20004388  clientInfoTbl                         
2000438c  serverInfoTbl                         
200043b0  GATTServApp_TaskID                    
200043c0  l2capFixedChannels                    
200043f0  l2capId                               
200043f1  smTaskID                              
200043f2  nextConnId                            
200043f3  hciTaskID                             
200043f4  linkDBNumConns                        
2000442c  pPairingParams                        
20004430  pfnResponderCBs                       
20004438  linkCmd                               
2000443c  linkParam                             
20004440  pBleEvtMask                           
20004448  pHciEvtMask2                          
20004450  rfEvent                               
20004458  advPkt                                
20004482  hciTestTaskID                         
20004483  hciGapTaskID                          
20004484  hciL2capTaskID                        
20004485  hciSmpTaskID                          
20004486  hciExtTaskID                          
20004490  timerHead                             
20004494  osal_last_timestamp                   
2000449c  ICall_dispatcher                      
200044a0  ICall_enterCriticalSection            
200044a4  ICall_leaveCriticalSection            
200044ac  tasksEvents                           
200044e4  gapAppTaskID                          
200044e5  gapProfileRole                        
200044e6  gapDeviceAddrMode                     
200044e7  gapAutoAdvPrivateAddrChange           
200044e8  gapPrivateAddrChangeTimeout           
20004548  slaveUpdateReq                        
20004550  slaveConnHandle                       
20004554  pEstLink                              
20004558  pAuthLink                             
2000455c  pfnCentralConnCBs                     
20004580  gapTaskID                             
20004581  gapUnwantedTaskID                     
20004584  pfnPeripheralCBs                      
2000458f  indTaskId                             
20004624  reqTaskId                             
20004625  gattAppTaskID                         
20004626  appTaskID                             
20004640  l2capTaskID                           
20004641  l2capNumChannels                      
20004642  l2capNumDataPkts                      
20004644  l2capChannels                         
20004648  l2capMtuSize                          
20004674  llUserConfig                          
20004698  advInfoExt                            
2000469c  maxPduSize                            
2000469d  rfFeModeBias                          
2000469e  maxNumTxDataBufs                      
200046a0  scanInfoExt                           
200046a4  rfCmdHandle                           
200046a8  rfHandle                              
200046ac  rfDrvTblPtr                           
200046b0  llConnectionExt                       
200046b4  trngDrvTblPtr                         
200046b8  activeConns                           
200046bc  SysBootMsg                            
200046c0  sclkSrc                               
200046c4  rfMode                                
200046d4  rfParams                              
200046e8  rfSetup                               
20004700  rfObject                              
20004798  assertSubcause                        
20004799  legacyMode                            
2000479c  halAssertCback                        
200047a0  bleDispatch_TaskID                    
200047a4  hciExtSignCounter                     
200047f8  rspBuf                                
20004831  osal_entity                           
20004838  osal_qHead                            
2000483c  osal_eventloop_hook                   
20004840  osal_semaphore                        
20004844  osal_tickperiod                       
20004848  osal_max_msecs                        
20004858  baseTaskID                            
2000485c  cbTimers                              
200048d8  OSAL_timeSeconds                      
200048dc  pwrmgr_initialized                    
200048de  pwrmgr_attribute                      
200048e8  A4_rw_1                               
200048e8  RAM_BASE_ADDR                         
200048fc  P2_zi_1                               
200048fc  scanDataEntry                         
200049dc  scanDataQueue                         
200049ec  advInfo                               
20004a8c  wlTable                               
20004b10  wlTableScan                           
20004b94  initDataEntry                         
20004bcc  initDataQueue                         
20004bdc  advDataEntry                          
20004c14  advDataQueue                          
20004c24  advCmd                                
20004c6c  ownPublicAddr                         
20004c74  ownRandomAddr                         
20004c7c  ownSavedPublicAddr                    
20004c84  LL_TaskID                             
20004c85  maxTxPwrForDTM                        
20004c86  onePktPerEvt                          
20004c87  numComplPktsLimit                     
20004c88  numComplPktsFlush                     
20004c89  slOverride                            
20004c8a  rxFifoFlowCtrl                        
20004c8b  numTxDataBufs                         
20004c8c  verInfo                               
20004c94  rfCfgAdiVal                           
20004c96  sleepDelay                            
20004c98  buildInfo                             
20004c9c  peerInfo                              
20004ca8  chanMapUpdate                         
20004cb0  llConns                               
20004cb8  llState                               
20004cb9  curTxPowerVal                         
20004cba  numComplPkts                          
20004cbb  fastTxRespTime                        
20004cbc  maxNumConns                           
20004cbe  postRfOperations                      
20004cc0  rssiCorrection                        
20004cc4  taskEndAction                         
20004cf0  initParam                             
20004d14  scanParam                             
20004d38  slvParam                              
20004d58  advParam                              
20004d78  txModemTestCmd                        
20004d94  scanInfo                              
20004db0  initCmd                               
20004dc8  connReqData                           
20004de0  slvCmd                                
20004df8  scanCmd                               
20004e10  scanOutput                            
20004e28  trxTestCmd                            
20004e40  rxModemTestCmd                        
20004e58  initInfo                              
20004e70  connOutput                            
20004e84  rxTestParam                           
20004e98  advOutput                             
20004ea8  txTestParam                           
20004eb8  initOutput                            
20004ec4  rxTestOut                             
20004ed0  deviceFeatureSet                      
20004edc  dtmInfo                               
20004ee8  cachedTRNGdata                        
20004ef4  llTaskList                            
20004f00  pHciEvtMask                           
20004f08  bleEvtMask                            
20004f0a  taskEndStatus                         
20004f0c  rxDataQ                               
20004f10  rxRingBuf                             
20004f14  mstCmd                                
20004f18  mstParam                              
20004f1c  txDataQ                               
20004f20  txTestOut                             
20004f24  ctrlToHostEnable                      
20004f26  numHostBufs                           
20004f28  hciPTMenabled                         
20004f2c  A4_rw                                 
20004f2c  COMMON_RAM_BASE_ADDR                  
20004f40  P2_rw                                 
20004f40  P2_s0                                 
20004f40  win                                   
20004f44  workzone                              
20004f48  data_p                                
20004f4c  data_r                                
20004f50  data_a                                
20004f54  inScalar                              
20004f58  inPointX                              
20004f5c  inPointY                              
20004f60  outPointX                             
20004f64  outPointY                             
20004f68  SCAL                                  
20004f6c  EXPX                                  
20004f70  EXPY                                  
20004f74  EXPZ                                  
20004f78  EXPW                                  
20004f7c  ACCX                                  
20004f80  ACCY                                  
20004f84  ACCZ                                  
20004f88  TMP1                                  
20004f8c  TMP2                                  
20004f90  TMP3                                  
20004f94  TMP4                                  
20004f98  TMP5                                  
20004f9c  TMP6                                  
20004fa0  data_Gx                               
20004fa4  data_Gy                               
20004fa8  data_b                                
20004fac  P2_zi                                 
20004fac  ratChanInfo                           
20004fcc  fwInfoCmd                             
20004fd8  MSBMOD                                
20004fdc  aux64                                 
20004fe4  MOD                                   
20004fe8  LEN                                   
20004ffc  pSspAesEncrypt_Sw                     
ffffffff  __binit__                             
ffffffff  __c_args__                            
ffffffff  binit                                 
UNDEFED   SHT$$INIT_ARRAY$$Base                 
UNDEFED   SHT$$INIT_ARRAY$$Limit                

[1347 symbols]
